(lp0
(S'cppflags'
p1
ccopy_reg
_reconstructor
p2
(cino.utils
SpaceList
p3
c__builtin__
list
p4
(lp5
S'-mmcu=atmega328p'
p6
aS'-DF_CPU=16000000L'
p7
aS'-DARDUINO=101'
p8
aS'-I/usr/share/arduino/hardware/arduino/cores/arduino'
p9
aS'-ffunction-sections'
p10
aS'-fdata-sections'
p11
aS'-g'
p12
aS'-Os'
p13
aS'-w'
p14
aS'-I/usr/share/arduino/hardware/arduino/variants/standard'
p15
aS'-I/usr/share/arduino/hardware/arduino/cores/arduino'
p16
atp17
Rp18
tp19
a(S'cxx'
p20
S'/usr/bin/avr-g++'
p21
tp22
a(S'arduino_libraries_dir'
p23
S'/usr/share/arduino/libraries'
p24
tp25
a(S'avrdude'
p26
S'/usr/share/arduino/hardware/tools/avrdude'
p27
tp28
a(S'ar'
p29
S'/usr/bin/avr-ar'
p30
tp31
a(S'names'
p32
(dp33
S'cpp'
p34
S'%s.cpp'
p35
sS'obj'
p36
S'%s.o'
p37
sS'lib'
p38
S'lib%s.a'
p39
sS'deps'
p40
S'%s.d'
p41
stp42
a(S'ldflags'
p43
g2
(g3
g4
(lp44
g6
aS'-Wl,-Os'
p45
aS'-Wl,--gc-sections'
p46
atp47
Rp48
tp49
a(S'arduino_lib_version'
p50
g2
(cino.environment
Version
p51
c__builtin__
tuple
p52
(I1
I0
I1
tp53
tp54
Rp55
tp56
a(S'objcopy'
p57
S'/usr/bin/avr-objcopy'
p58
tp59
a(S'board_models'
p60
cino.environment
BoardModels
p61
((lp62
(lp63
S'uno'
p64
a(dp65
S'build'
p66
(dp67
S'core'
p68
S'arduino'
p69
sS'mcu'
p70
S'atmega328p'
p71
sS'f_cpu'
p72
S'16000000L'
p73
sS'variant'
p74
S'standard'
p75
ssS'bootloader'
p76
(dp77
S'extended_fuses'
p78
S'0x05'
p79
sS'high_fuses'
p80
S'0xde'
p81
sS'low_fuses'
p82
S'0xff'
p83
sS'lock_bits'
p84
S'0x0F'
p85
sS'file'
p86
S'optiboot_atmega328.hex'
p87
sS'path'
p88
S'optiboot'
p89
sS'unlock_bits'
p90
S'0x3F'
p91
ssS'upload'
p92
(dp93
S'protocol'
p94
S'arduino'
p95
sS'maximum_size'
p96
S'32256'
p97
sS'speed'
p98
S'115200'
p99
ssS'name'
p100
S'Arduino Uno'
p101
saa(lp102
S'atmega328'
p103
a(dp104
S'build'
p105
(dp106
S'core'
p107
S'arduino'
p108
sS'mcu'
p109
S'atmega328p'
p110
sS'f_cpu'
p111
S'16000000L'
p112
sS'variant'
p113
S'standard'
p114
ssS'bootloader'
p115
(dp116
S'extended_fuses'
p117
S'0x05'
p118
sS'high_fuses'
p119
S'0xDA'
p120
sS'low_fuses'
p121
S'0xFF'
p122
sS'lock_bits'
p123
S'0x0F'
p124
sS'file'
p125
S'ATmegaBOOT_168_atmega328.hex'
p126
sS'path'
p127
S'atmega'
p128
sS'unlock_bits'
p129
S'0x3F'
p130
ssS'upload'
p131
(dp132
S'protocol'
p133
S'arduino'
p134
sS'maximum_size'
p135
S'30720'
p136
sS'speed'
p137
S'57600'
p138
ssS'name'
p139
S'Arduino Duemilanove w/ ATmega328'
p140
saa(lp141
S'diecimila'
p142
a(dp143
S'build'
p144
(dp145
S'core'
p146
S'arduino'
p147
sS'mcu'
p148
S'atmega168'
p149
sS'f_cpu'
p150
S'16000000L'
p151
sS'variant'
p152
S'standard'
p153
ssS'bootloader'
p154
(dp155
S'extended_fuses'
p156
S'0x00'
p157
sS'high_fuses'
p158
S'0xdd'
p159
sS'low_fuses'
p160
S'0xff'
p161
sS'lock_bits'
p162
S'0x0F'
p163
sS'file'
p164
S'ATmegaBOOT_168_diecimila.hex'
p165
sS'path'
p166
S'atmega'
p167
sS'unlock_bits'
p168
S'0x3F'
p169
ssS'upload'
p170
(dp171
S'protocol'
p172
S'arduino'
p173
sS'maximum_size'
p174
S'14336'
p175
sS'speed'
p176
S'19200'
p177
ssS'name'
p178
S'Arduino Diecimila or Duemilanove w/ ATmega168'
p179
saa(lp180
S'nano328'
p181
a(dp182
S'build'
p183
(dp184
S'core'
p185
S'arduino'
p186
sS'mcu'
p187
S'atmega328p'
p188
sS'f_cpu'
p189
S'16000000L'
p190
sS'variant'
p191
S'eightanaloginputs'
p192
ssS'bootloader'
p193
(dp194
S'extended_fuses'
p195
S'0x05'
p196
sS'high_fuses'
p197
S'0xDA'
p198
sS'low_fuses'
p199
S'0xFF'
p200
sS'lock_bits'
p201
S'0x0F'
p202
sS'file'
p203
S'ATmegaBOOT_168_atmega328.hex'
p204
sS'path'
p205
S'atmega'
p206
sS'unlock_bits'
p207
S'0x3F'
p208
ssS'upload'
p209
(dp210
S'protocol'
p211
S'arduino'
p212
sS'maximum_size'
p213
S'30720'
p214
sS'speed'
p215
S'57600'
p216
ssS'name'
p217
S'Arduino Nano w/ ATmega328'
p218
saa(lp219
S'nano'
p220
a(dp221
S'build'
p222
(dp223
S'core'
p224
S'arduino'
p225
sS'mcu'
p226
S'atmega168'
p227
sS'f_cpu'
p228
S'16000000L'
p229
sS'variant'
p230
S'eightanaloginputs'
p231
ssS'bootloader'
p232
(dp233
S'extended_fuses'
p234
S'0x00'
p235
sS'high_fuses'
p236
S'0xdd'
p237
sS'low_fuses'
p238
S'0xff'
p239
sS'lock_bits'
p240
S'0x0F'
p241
sS'file'
p242
S'ATmegaBOOT_168_diecimila.hex'
p243
sS'path'
p244
S'atmega'
p245
sS'unlock_bits'
p246
S'0x3F'
p247
ssS'upload'
p248
(dp249
S'protocol'
p250
S'arduino'
p251
sS'maximum_size'
p252
S'14336'
p253
sS'speed'
p254
S'19200'
p255
ssS'name'
p256
S'Arduino Nano w/ ATmega168'
p257
saa(lp258
S'mega2560'
p259
a(dp260
S'build'
p261
(dp262
S'core'
p263
S'arduino'
p264
sS'mcu'
p265
S'atmega2560'
p266
sS'f_cpu'
p267
S'16000000L'
p268
sS'variant'
p269
S'mega'
p270
ssS'bootloader'
p271
(dp272
S'extended_fuses'
p273
S'0xFD'
p274
sS'high_fuses'
p275
S'0xD8'
p276
sS'low_fuses'
p277
S'0xFF'
p278
sS'lock_bits'
p279
S'0x0F'
p280
sS'file'
p281
S'stk500boot_v2_mega2560.hex'
p282
sS'path'
p283
S'stk500v2'
p284
sS'unlock_bits'
p285
S'0x3F'
p286
ssS'upload'
p287
(dp288
S'protocol'
p289
S'stk500v2'
p290
sS'maximum_size'
p291
S'258048'
p292
sS'speed'
p293
S'115200'
p294
ssS'name'
p295
S'Arduino Mega 2560 or Mega ADK'
p296
saa(lp297
S'mega'
p298
a(dp299
S'build'
p300
(dp301
S'core'
p302
S'arduino'
p303
sS'mcu'
p304
S'atmega1280'
p305
sS'f_cpu'
p306
S'16000000L'
p307
sS'variant'
p308
S'mega'
p309
ssS'bootloader'
p310
(dp311
S'extended_fuses'
p312
S'0xF5'
p313
sS'high_fuses'
p314
S'0xDA'
p315
sS'low_fuses'
p316
S'0xFF'
p317
sS'lock_bits'
p318
S'0x0F'
p319
sS'file'
p320
S'ATmegaBOOT_168_atmega1280.hex'
p321
sS'path'
p322
S'atmega'
p323
sS'unlock_bits'
p324
S'0x3F'
p325
ssS'upload'
p326
(dp327
S'protocol'
p328
S'arduino'
p329
sS'maximum_size'
p330
S'126976'
p331
sS'speed'
p332
S'57600'
p333
ssS'name'
p334
S'Arduino Mega (ATmega1280)'
p335
saa(lp336
S'leonardo'
p337
a(dp338
S'build'
p339
(dp340
S'core'
p341
S'arduino'
p342
sS'f_cpu'
p343
S'16000000L'
p344
sS'vid'
p345
S'0x2341'
p346
sS'pid'
p347
S'0x8036'
p348
sS'variant'
p349
S'leonardo'
p350
sS'mcu'
p351
S'atmega32u4'
p352
ssS'bootloader'
p353
(dp354
S'extended_fuses'
p355
S'0xcb'
p356
sS'high_fuses'
p357
S'0xd8'
p358
sS'low_fuses'
p359
S'0xff'
p360
sS'lock_bits'
p361
S'0x2F'
p362
sS'file'
p363
S'Caterina-Leonardo.hex'
p364
sS'path'
p365
S'caterina'
p366
sS'unlock_bits'
p367
S'0x3F'
p368
ssS'upload'
p369
(dp370
S'protocol'
p371
S'avr109'
p372
sS'maximum_size'
p373
S'28672'
p374
sS'speed'
p375
S'57600'
p376
sS'disable_flushing'
p377
S'true'
p378
ssS'name'
p379
S'Arduino Leonardo'
p380
saa(lp381
S'mini328'
p382
a(dp383
S'build'
p384
(dp385
S'core'
p386
S'arduino'
p387
sS'mcu'
p388
S'atmega328p'
p389
sS'f_cpu'
p390
S'16000000L'
p391
sS'variant'
p392
S'eightanaloginputs'
p393
ssS'bootloader'
p394
(dp395
S'extended_fuses'
p396
S'0x05'
p397
sS'high_fuses'
p398
S'0xd8'
p399
sS'low_fuses'
p400
S'0xff'
p401
sS'lock_bits'
p402
S'0x0F'
p403
sS'file'
p404
S'optiboot_atmega328-Mini.hex'
p405
sS'path'
p406
S'optiboot'
p407
sS'unlock_bits'
p408
S'0x3F'
p409
ssS'upload'
p410
(dp411
S'protocol'
p412
S'arduino'
p413
sS'maximum_size'
p414
S'28672'
p415
sS'speed'
p416
S'115200'
p417
ssS'name'
p418
S'Arduino Mini w/ ATmega328'
p419
saa(lp420
S'mini'
p421
a(dp422
S'build'
p423
(dp424
S'core'
p425
S'arduino'
p426
sS'mcu'
p427
S'atmega168'
p428
sS'f_cpu'
p429
S'16000000L'
p430
sS'variant'
p431
S'eightanaloginputs'
p432
ssS'bootloader'
p433
(dp434
S'extended_fuses'
p435
S'0x00'
p436
sS'high_fuses'
p437
S'0xdd'
p438
sS'low_fuses'
p439
S'0xff'
p440
sS'lock_bits'
p441
S'0x0F'
p442
sS'file'
p443
S'ATmegaBOOT_168_ng.hex'
p444
sS'path'
p445
S'atmega'
p446
sS'unlock_bits'
p447
S'0x3F'
p448
ssS'upload'
p449
(dp450
S'protocol'
p451
S'arduino'
p452
sS'maximum_size'
p453
S'14336'
p454
sS'speed'
p455
S'19200'
p456
ssS'name'
p457
S'Arduino Mini w/ ATmega168'
p458
saa(lp459
S'ethernet'
p460
a(dp461
S'build'
p462
(dp463
S'variant'
p464
S'standard'
p465
sS'mcu'
p466
S'atmega328p'
p467
sS'f_cpu'
p468
S'16000000L'
p469
sS'core'
p470
S'arduino'
p471
ssS'bootloader'
p472
(dp473
S'extended_fuses'
p474
S'0x05'
p475
sS'high_fuses'
p476
S'0xde'
p477
sS'low_fuses'
p478
S'0xff'
p479
sS'lock_bits'
p480
S'0x0F'
p481
sS'file'
p482
S'optiboot_atmega328.hex'
p483
sS'path'
p484
S'optiboot'
p485
sS'unlock_bits'
p486
S'0x3F'
p487
ssS'upload'
p488
(dp489
S'protocol'
p490
S'arduino'
p491
sS'maximum_size'
p492
S'32256'
p493
sS'speed'
p494
S'115200'
p495
ssS'name'
p496
S'Arduino Ethernet'
p497
saa(lp498
S'fio'
p499
a(dp500
S'build'
p501
(dp502
S'core'
p503
S'arduino'
p504
sS'mcu'
p505
S'atmega328p'
p506
sS'f_cpu'
p507
S'8000000L'
p508
sS'variant'
p509
S'eightanaloginputs'
p510
ssS'bootloader'
p511
(dp512
S'extended_fuses'
p513
S'0x05'
p514
sS'high_fuses'
p515
S'0xDA'
p516
sS'low_fuses'
p517
S'0xFF'
p518
sS'lock_bits'
p519
S'0x0F'
p520
sS'file'
p521
S'ATmegaBOOT_168_atmega328_pro_8MHz.hex'
p522
sS'path'
p523
S'arduino:atmega'
p524
sS'unlock_bits'
p525
S'0x3F'
p526
ssS'upload'
p527
(dp528
S'protocol'
p529
S'arduino'
p530
sS'maximum_size'
p531
S'30720'
p532
sS'speed'
p533
S'57600'
p534
ssS'name'
p535
S'Arduino Fio'
p536
saa(lp537
S'bt328'
p538
a(dp539
S'build'
p540
(dp541
S'core'
p542
S'arduino'
p543
sS'mcu'
p544
S'atmega328p'
p545
sS'f_cpu'
p546
S'16000000L'
p547
sS'variant'
p548
S'eightanaloginputs'
p549
ssS'bootloader'
p550
(dp551
S'extended_fuses'
p552
S'0x05'
p553
sS'high_fuses'
p554
S'0xd8'
p555
sS'low_fuses'
p556
S'0xff'
p557
sS'lock_bits'
p558
S'0x0F'
p559
sS'file'
p560
S'ATmegaBOOT_168_atmega328_bt.hex'
p561
sS'path'
p562
S'bt'
p563
sS'unlock_bits'
p564
S'0x3F'
p565
ssS'upload'
p566
(dp567
S'protocol'
p568
S'arduino'
p569
sS'maximum_size'
p570
S'28672'
p571
sS'speed'
p572
S'19200'
p573
sS'disable_flushing'
p574
S'true'
p575
ssS'name'
p576
S'Arduino BT w/ ATmega328'
p577
saa(lp578
S'bt'
p579
a(dp580
S'build'
p581
(dp582
S'core'
p583
S'arduino'
p584
sS'mcu'
p585
S'atmega168'
p586
sS'f_cpu'
p587
S'16000000L'
p588
sS'variant'
p589
S'eightanaloginputs'
p590
ssS'bootloader'
p591
(dp592
S'extended_fuses'
p593
S'0x00'
p594
sS'high_fuses'
p595
S'0xdd'
p596
sS'low_fuses'
p597
S'0xff'
p598
sS'lock_bits'
p599
S'0x0F'
p600
sS'file'
p601
S'ATmegaBOOT_168.hex'
p602
sS'path'
p603
S'bt'
p604
sS'unlock_bits'
p605
S'0x3F'
p606
ssS'upload'
p607
(dp608
S'protocol'
p609
S'arduino'
p610
sS'maximum_size'
p611
S'14336'
p612
sS'speed'
p613
S'19200'
p614
sS'disable_flushing'
p615
S'true'
p616
ssS'name'
p617
S'Arduino BT w/ ATmega168'
p618
saa(lp619
S'lilypad328'
p620
a(dp621
S'build'
p622
(dp623
S'core'
p624
S'arduino'
p625
sS'mcu'
p626
S'atmega328p'
p627
sS'f_cpu'
p628
S'8000000L'
p629
sS'variant'
p630
S'standard'
p631
ssS'bootloader'
p632
(dp633
S'extended_fuses'
p634
S'0x05'
p635
sS'high_fuses'
p636
S'0xDA'
p637
sS'low_fuses'
p638
S'0xFF'
p639
sS'lock_bits'
p640
S'0x0F'
p641
sS'file'
p642
S'ATmegaBOOT_168_atmega328_pro_8MHz.hex'
p643
sS'path'
p644
S'atmega'
p645
sS'unlock_bits'
p646
S'0x3F'
p647
ssS'upload'
p648
(dp649
S'protocol'
p650
S'arduino'
p651
sS'maximum_size'
p652
S'30720'
p653
sS'speed'
p654
S'57600'
p655
ssS'name'
p656
S'LilyPad Arduino w/ ATmega328'
p657
saa(lp658
S'lilypad'
p659
a(dp660
S'build'
p661
(dp662
S'core'
p663
S'arduino'
p664
sS'mcu'
p665
S'atmega168'
p666
sS'f_cpu'
p667
S'8000000L'
p668
sS'variant'
p669
S'standard'
p670
ssS'bootloader'
p671
(dp672
S'extended_fuses'
p673
S'0x00'
p674
sS'high_fuses'
p675
S'0xdd'
p676
sS'low_fuses'
p677
S'0xe2'
p678
sS'lock_bits'
p679
S'0x0F'
p680
sS'file'
p681
S'LilyPadBOOT_168.hex'
p682
sS'path'
p683
S'lilypad'
p684
sS'unlock_bits'
p685
S'0x3F'
p686
ssS'upload'
p687
(dp688
S'protocol'
p689
S'arduino'
p690
sS'maximum_size'
p691
S'14336'
p692
sS'speed'
p693
S'19200'
p694
ssS'name'
p695
S'LilyPad Arduino w/ ATmega168'
p696
saa(lp697
S'pro5v328'
p698
a(dp699
S'build'
p700
(dp701
S'core'
p702
S'arduino'
p703
sS'mcu'
p704
S'atmega328p'
p705
sS'f_cpu'
p706
S'16000000L'
p707
sS'variant'
p708
S'standard'
p709
ssS'bootloader'
p710
(dp711
S'extended_fuses'
p712
S'0x05'
p713
sS'high_fuses'
p714
S'0xDA'
p715
sS'low_fuses'
p716
S'0xFF'
p717
sS'lock_bits'
p718
S'0x0F'
p719
sS'file'
p720
S'ATmegaBOOT_168_atmega328.hex'
p721
sS'path'
p722
S'atmega'
p723
sS'unlock_bits'
p724
S'0x3F'
p725
ssS'upload'
p726
(dp727
S'protocol'
p728
S'arduino'
p729
sS'maximum_size'
p730
S'30720'
p731
sS'speed'
p732
S'57600'
p733
ssS'name'
p734
S'Arduino Pro or Pro Mini (5V, 16 MHz) w/ ATmega328'
p735
saa(lp736
S'pro5v'
p737
a(dp738
S'build'
p739
(dp740
S'core'
p741
S'arduino'
p742
sS'mcu'
p743
S'atmega168'
p744
sS'f_cpu'
p745
S'16000000L'
p746
sS'variant'
p747
S'standard'
p748
ssS'bootloader'
p749
(dp750
S'extended_fuses'
p751
S'0x00'
p752
sS'high_fuses'
p753
S'0xdd'
p754
sS'low_fuses'
p755
S'0xff'
p756
sS'lock_bits'
p757
S'0x0F'
p758
sS'file'
p759
S'ATmegaBOOT_168_diecimila.hex'
p760
sS'path'
p761
S'atmega'
p762
sS'unlock_bits'
p763
S'0x3F'
p764
ssS'upload'
p765
(dp766
S'protocol'
p767
S'arduino'
p768
sS'maximum_size'
p769
S'14336'
p770
sS'speed'
p771
S'19200'
p772
ssS'name'
p773
S'Arduino Pro or Pro Mini (5V, 16 MHz) w/ ATmega168'
p774
saa(lp775
S'pro328'
p776
a(dp777
S'build'
p778
(dp779
S'core'
p780
S'arduino'
p781
sS'mcu'
p782
S'atmega328p'
p783
sS'f_cpu'
p784
S'8000000L'
p785
sS'variant'
p786
S'standard'
p787
ssS'bootloader'
p788
(dp789
S'extended_fuses'
p790
S'0x05'
p791
sS'high_fuses'
p792
S'0xDA'
p793
sS'low_fuses'
p794
S'0xFF'
p795
sS'lock_bits'
p796
S'0x0F'
p797
sS'file'
p798
S'ATmegaBOOT_168_atmega328_pro_8MHz.hex'
p799
sS'path'
p800
S'atmega'
p801
sS'unlock_bits'
p802
S'0x3F'
p803
ssS'upload'
p804
(dp805
S'protocol'
p806
S'arduino'
p807
sS'maximum_size'
p808
S'30720'
p809
sS'speed'
p810
S'57600'
p811
ssS'name'
p812
S'Arduino Pro or Pro Mini (3.3V, 8 MHz) w/ ATmega328'
p813
saa(lp814
S'pro'
p815
a(dp816
S'build'
p817
(dp818
S'core'
p819
S'arduino'
p820
sS'mcu'
p821
S'atmega168'
p822
sS'f_cpu'
p823
S'8000000L'
p824
sS'variant'
p825
S'standard'
p826
ssS'bootloader'
p827
(dp828
S'extended_fuses'
p829
S'0x00'
p830
sS'high_fuses'
p831
S'0xdd'
p832
sS'low_fuses'
p833
S'0xc6'
p834
sS'lock_bits'
p835
S'0x0F'
p836
sS'file'
p837
S'ATmegaBOOT_168_pro_8MHz.hex'
p838
sS'path'
p839
S'atmega'
p840
sS'unlock_bits'
p841
S'0x3F'
p842
ssS'upload'
p843
(dp844
S'protocol'
p845
S'arduino'
p846
sS'maximum_size'
p847
S'14336'
p848
sS'speed'
p849
S'19200'
p850
ssS'name'
p851
S'Arduino Pro or Pro Mini (3.3V, 8 MHz) w/ ATmega168'
p852
saa(lp853
S'atmega168'
p854
a(dp855
S'build'
p856
(dp857
S'core'
p858
S'arduino'
p859
sS'mcu'
p860
S'atmega168'
p861
sS'f_cpu'
p862
S'16000000L'
p863
sS'variant'
p864
S'standard'
p865
ssS'bootloader'
p866
(dp867
S'extended_fuses'
p868
S'0x00'
p869
sS'high_fuses'
p870
S'0xdd'
p871
sS'low_fuses'
p872
S'0xff'
p873
sS'lock_bits'
p874
S'0x0F'
p875
sS'file'
p876
S'ATmegaBOOT_168_ng.hex'
p877
sS'path'
p878
S'atmega'
p879
sS'unlock_bits'
p880
S'0x3F'
p881
ssS'upload'
p882
(dp883
S'protocol'
p884
S'arduino'
p885
sS'maximum_size'
p886
S'14336'
p887
sS'speed'
p888
S'19200'
p889
ssS'name'
p890
S'Arduino NG or older w/ ATmega168'
p891
saa(lp892
S'atmega8'
p893
a(dp894
S'build'
p895
(dp896
S'core'
p897
S'arduino'
p898
sS'mcu'
p899
S'atmega8'
p900
sS'f_cpu'
p901
S'16000000L'
p902
sS'variant'
p903
S'standard'
p904
ssS'bootloader'
p905
(dp906
S'high_fuses'
p907
S'0xca'
p908
sS'low_fuses'
p909
S'0xdf'
p910
sS'lock_bits'
p911
S'0x0F'
p912
sS'file'
p913
S'ATmegaBOOT.hex'
p914
sS'path'
p915
S'atmega8'
p916
sS'unlock_bits'
p917
S'0x3F'
p918
ssS'upload'
p919
(dp920
S'protocol'
p921
S'arduino'
p922
sS'maximum_size'
p923
S'7168'
p924
sS'speed'
p925
S'19200'
p926
ssS'name'
p927
S'Arduino NG or older w/ ATmega8'
p928
saatp929
Rp930
(dp931
S'default'
p932
S'uno'
p933
sbtp934
a(S'used_libs'
p935
(lp936
S'/usr/share/arduino/hardware/arduino/cores/arduino'
p937
atp938
a(S'make'
p939
S'/usr/bin/make'
p940
tp941
a(S'build_dir'
p942
S'.build/uno'
p943
tp944
a(S'cc'
p945
S'/usr/bin/avr-gcc'
p946
tp947
a(S'cflags'
p948
g2
(g3
g4
(lp949
tp950
Rp951
tp952
a(S'cxxflags'
p953
g2
(g3
g4
(lp954
S'-fno-exceptions'
p955
atp956
Rp957
tp958
a(S'arduino_variants_dir'
p959
S'/usr/share/arduino/hardware/arduino/variants'
p960
tp961
a(S'stty'
p962
S'/bin/stty'
p963
tp964
a(S'version.txt'
p965
S'/usr/share/arduino/lib/version.txt'
p966
tp967
a(S'arduino_core_dir'
p968
g937
tp969
a(S'boards.txt'
p970
S'/usr/share/arduino/hardware/arduino/boards.txt'
p971
tp972
a(S'avrdude.conf'
p973
S'/usr/share/arduino/hardware/tools/avrdude.conf'
p974
tp975
a(S'deps'
p976
g2
(g3
g4
(lp977
S'.build/uno/src/dependencies.d'
p978
aS'.build/uno/arduino/dependencies.d'
p979
atp980
Rp981
tp982
a.