(lp0
(S'cppflags'
p1
ccopy_reg
_reconstructor
p2
(cino.utils
SpaceList
p3
c__builtin__
list
p4
(lp5
S'-mmcu=atmega328p'
p6
aS'-DF_CPU=16000000L'
p7
aS'-DARDUINO=101'
p8
aS'-I/usr/share/arduino/hardware/arduino/cores/arduino'
p9
aS'-ffunction-sections'
p10
aS'-fdata-sections'
p11
aS'-g'
p12
aS'-Os'
p13
aS'-w'
p14
aS'-I/usr/share/arduino/hardware/arduino/variants/standard'
p15
aS'-I/usr/share/arduino/hardware/arduino/cores/arduino'
p16
atp17
Rp18
tp19
a(S'cxx'
p20
S'/usr/bin/avr-g++'
p21
tp22
a(S'build_dir'
p23
S'.build/uno'
p24
tp25
a(S'avrdude'
p26
S'/usr/share/arduino/hardware/tools/avrdude'
p27
tp28
a(S'ar'
p29
S'/usr/bin/avr-ar'
p30
tp31
a(S'names'
p32
(dp33
S'cpp'
p34
S'%s.cpp'
p35
sS'obj'
p36
S'%s.o'
p37
sS'deps'
p38
S'%s.d'
p39
sS'lib'
p40
S'lib%s.a'
p41
stp42
a(S'ldflags'
p43
g2
(g3
g4
(lp44
g6
aS'-Wl,-Os'
p45
aS'-Wl,--gc-sections'
p46
atp47
Rp48
tp49
a(S'arduino_lib_version'
p50
g2
(cino.environment
Version
p51
c__builtin__
tuple
p52
(I1
I0
I1
tp53
tp54
Rp55
tp56
a(S'objcopy'
p57
S'/usr/bin/avr-objcopy'
p58
tp59
a(S'board_models'
p60
cino.environment
BoardModels
p61
((lp62
(lp63
S'uno'
p64
a(dp65
S'bootloader'
p66
(dp67
S'extended_fuses'
p68
S'0x05'
p69
sS'high_fuses'
p70
S'0xde'
p71
sS'low_fuses'
p72
S'0xff'
p73
sS'lock_bits'
p74
S'0x0F'
p75
sS'file'
p76
S'optiboot_atmega328.hex'
p77
sS'path'
p78
S'optiboot'
p79
sS'unlock_bits'
p80
S'0x3F'
p81
ssS'build'
p82
(dp83
S'core'
p84
S'arduino'
p85
sS'mcu'
p86
S'atmega328p'
p87
sS'f_cpu'
p88
S'16000000L'
p89
sS'variant'
p90
S'standard'
p91
ssS'name'
p92
S'Arduino Uno'
p93
sS'upload'
p94
(dp95
S'speed'
p96
S'115200'
p97
sS'maximum_size'
p98
S'32256'
p99
sS'protocol'
p100
S'arduino'
p101
ssaa(lp102
S'atmega328'
p103
a(dp104
S'bootloader'
p105
(dp106
S'extended_fuses'
p107
S'0x05'
p108
sS'high_fuses'
p109
S'0xDA'
p110
sS'low_fuses'
p111
S'0xFF'
p112
sS'lock_bits'
p113
S'0x0F'
p114
sS'file'
p115
S'ATmegaBOOT_168_atmega328.hex'
p116
sS'path'
p117
S'atmega'
p118
sS'unlock_bits'
p119
S'0x3F'
p120
ssS'build'
p121
(dp122
S'core'
p123
S'arduino'
p124
sS'mcu'
p125
S'atmega328p'
p126
sS'f_cpu'
p127
S'16000000L'
p128
sS'variant'
p129
S'standard'
p130
ssS'name'
p131
S'Arduino Duemilanove w/ ATmega328'
p132
sS'upload'
p133
(dp134
S'speed'
p135
S'57600'
p136
sS'maximum_size'
p137
S'30720'
p138
sS'protocol'
p139
S'arduino'
p140
ssaa(lp141
S'diecimila'
p142
a(dp143
S'bootloader'
p144
(dp145
S'extended_fuses'
p146
S'0x00'
p147
sS'high_fuses'
p148
S'0xdd'
p149
sS'low_fuses'
p150
S'0xff'
p151
sS'lock_bits'
p152
S'0x0F'
p153
sS'file'
p154
S'ATmegaBOOT_168_diecimila.hex'
p155
sS'path'
p156
S'atmega'
p157
sS'unlock_bits'
p158
S'0x3F'
p159
ssS'build'
p160
(dp161
S'core'
p162
S'arduino'
p163
sS'mcu'
p164
S'atmega168'
p165
sS'f_cpu'
p166
S'16000000L'
p167
sS'variant'
p168
S'standard'
p169
ssS'name'
p170
S'Arduino Diecimila or Duemilanove w/ ATmega168'
p171
sS'upload'
p172
(dp173
S'speed'
p174
S'19200'
p175
sS'maximum_size'
p176
S'14336'
p177
sS'protocol'
p178
S'arduino'
p179
ssaa(lp180
S'nano328'
p181
a(dp182
S'bootloader'
p183
(dp184
S'extended_fuses'
p185
S'0x05'
p186
sS'high_fuses'
p187
S'0xDA'
p188
sS'low_fuses'
p189
S'0xFF'
p190
sS'lock_bits'
p191
S'0x0F'
p192
sS'file'
p193
S'ATmegaBOOT_168_atmega328.hex'
p194
sS'path'
p195
S'atmega'
p196
sS'unlock_bits'
p197
S'0x3F'
p198
ssS'build'
p199
(dp200
S'core'
p201
S'arduino'
p202
sS'mcu'
p203
S'atmega328p'
p204
sS'f_cpu'
p205
S'16000000L'
p206
sS'variant'
p207
S'eightanaloginputs'
p208
ssS'name'
p209
S'Arduino Nano w/ ATmega328'
p210
sS'upload'
p211
(dp212
S'speed'
p213
S'57600'
p214
sS'maximum_size'
p215
S'30720'
p216
sS'protocol'
p217
S'arduino'
p218
ssaa(lp219
S'nano'
p220
a(dp221
S'bootloader'
p222
(dp223
S'extended_fuses'
p224
S'0x00'
p225
sS'high_fuses'
p226
S'0xdd'
p227
sS'low_fuses'
p228
S'0xff'
p229
sS'lock_bits'
p230
S'0x0F'
p231
sS'file'
p232
S'ATmegaBOOT_168_diecimila.hex'
p233
sS'path'
p234
S'atmega'
p235
sS'unlock_bits'
p236
S'0x3F'
p237
ssS'build'
p238
(dp239
S'core'
p240
S'arduino'
p241
sS'mcu'
p242
S'atmega168'
p243
sS'f_cpu'
p244
S'16000000L'
p245
sS'variant'
p246
S'eightanaloginputs'
p247
ssS'name'
p248
S'Arduino Nano w/ ATmega168'
p249
sS'upload'
p250
(dp251
S'speed'
p252
S'19200'
p253
sS'maximum_size'
p254
S'14336'
p255
sS'protocol'
p256
S'arduino'
p257
ssaa(lp258
S'mega2560'
p259
a(dp260
S'bootloader'
p261
(dp262
S'extended_fuses'
p263
S'0xFD'
p264
sS'high_fuses'
p265
S'0xD8'
p266
sS'low_fuses'
p267
S'0xFF'
p268
sS'lock_bits'
p269
S'0x0F'
p270
sS'file'
p271
S'stk500boot_v2_mega2560.hex'
p272
sS'path'
p273
S'stk500v2'
p274
sS'unlock_bits'
p275
S'0x3F'
p276
ssS'build'
p277
(dp278
S'core'
p279
S'arduino'
p280
sS'mcu'
p281
S'atmega2560'
p282
sS'f_cpu'
p283
S'16000000L'
p284
sS'variant'
p285
S'mega'
p286
ssS'name'
p287
S'Arduino Mega 2560 or Mega ADK'
p288
sS'upload'
p289
(dp290
S'speed'
p291
S'115200'
p292
sS'maximum_size'
p293
S'258048'
p294
sS'protocol'
p295
S'stk500v2'
p296
ssaa(lp297
S'mega'
p298
a(dp299
S'bootloader'
p300
(dp301
S'extended_fuses'
p302
S'0xF5'
p303
sS'high_fuses'
p304
S'0xDA'
p305
sS'low_fuses'
p306
S'0xFF'
p307
sS'lock_bits'
p308
S'0x0F'
p309
sS'file'
p310
S'ATmegaBOOT_168_atmega1280.hex'
p311
sS'path'
p312
S'atmega'
p313
sS'unlock_bits'
p314
S'0x3F'
p315
ssS'build'
p316
(dp317
S'core'
p318
S'arduino'
p319
sS'mcu'
p320
S'atmega1280'
p321
sS'f_cpu'
p322
S'16000000L'
p323
sS'variant'
p324
S'mega'
p325
ssS'name'
p326
S'Arduino Mega (ATmega1280)'
p327
sS'upload'
p328
(dp329
S'speed'
p330
S'57600'
p331
sS'maximum_size'
p332
S'126976'
p333
sS'protocol'
p334
S'arduino'
p335
ssaa(lp336
S'leonardo'
p337
a(dp338
S'bootloader'
p339
(dp340
S'extended_fuses'
p341
S'0xcb'
p342
sS'high_fuses'
p343
S'0xd8'
p344
sS'low_fuses'
p345
S'0xff'
p346
sS'lock_bits'
p347
S'0x2F'
p348
sS'file'
p349
S'Caterina-Leonardo.hex'
p350
sS'path'
p351
S'caterina'
p352
sS'unlock_bits'
p353
S'0x3F'
p354
ssS'build'
p355
(dp356
S'core'
p357
S'arduino'
p358
sS'f_cpu'
p359
S'16000000L'
p360
sS'vid'
p361
S'0x2341'
p362
sS'pid'
p363
S'0x8036'
p364
sS'variant'
p365
S'leonardo'
p366
sS'mcu'
p367
S'atmega32u4'
p368
ssS'name'
p369
S'Arduino Leonardo'
p370
sS'upload'
p371
(dp372
S'speed'
p373
S'57600'
p374
sS'maximum_size'
p375
S'28672'
p376
sS'protocol'
p377
S'avr109'
p378
sS'disable_flushing'
p379
S'true'
p380
ssaa(lp381
S'mini328'
p382
a(dp383
S'bootloader'
p384
(dp385
S'extended_fuses'
p386
S'0x05'
p387
sS'high_fuses'
p388
S'0xd8'
p389
sS'low_fuses'
p390
S'0xff'
p391
sS'lock_bits'
p392
S'0x0F'
p393
sS'file'
p394
S'optiboot_atmega328-Mini.hex'
p395
sS'path'
p396
S'optiboot'
p397
sS'unlock_bits'
p398
S'0x3F'
p399
ssS'build'
p400
(dp401
S'core'
p402
S'arduino'
p403
sS'mcu'
p404
S'atmega328p'
p405
sS'f_cpu'
p406
S'16000000L'
p407
sS'variant'
p408
S'eightanaloginputs'
p409
ssS'name'
p410
S'Arduino Mini w/ ATmega328'
p411
sS'upload'
p412
(dp413
S'speed'
p414
S'115200'
p415
sS'maximum_size'
p416
S'28672'
p417
sS'protocol'
p418
S'arduino'
p419
ssaa(lp420
S'mini'
p421
a(dp422
S'bootloader'
p423
(dp424
S'extended_fuses'
p425
S'0x00'
p426
sS'high_fuses'
p427
S'0xdd'
p428
sS'low_fuses'
p429
S'0xff'
p430
sS'lock_bits'
p431
S'0x0F'
p432
sS'file'
p433
S'ATmegaBOOT_168_ng.hex'
p434
sS'path'
p435
S'atmega'
p436
sS'unlock_bits'
p437
S'0x3F'
p438
ssS'build'
p439
(dp440
S'core'
p441
S'arduino'
p442
sS'mcu'
p443
S'atmega168'
p444
sS'f_cpu'
p445
S'16000000L'
p446
sS'variant'
p447
S'eightanaloginputs'
p448
ssS'name'
p449
S'Arduino Mini w/ ATmega168'
p450
sS'upload'
p451
(dp452
S'speed'
p453
S'19200'
p454
sS'maximum_size'
p455
S'14336'
p456
sS'protocol'
p457
S'arduino'
p458
ssaa(lp459
S'ethernet'
p460
a(dp461
S'bootloader'
p462
(dp463
S'extended_fuses'
p464
S'0x05'
p465
sS'high_fuses'
p466
S'0xde'
p467
sS'low_fuses'
p468
S'0xff'
p469
sS'lock_bits'
p470
S'0x0F'
p471
sS'file'
p472
S'optiboot_atmega328.hex'
p473
sS'path'
p474
S'optiboot'
p475
sS'unlock_bits'
p476
S'0x3F'
p477
ssS'build'
p478
(dp479
S'f_cpu'
p480
S'16000000L'
p481
sS'mcu'
p482
S'atmega328p'
p483
sS'variant'
p484
S'standard'
p485
sS'core'
p486
S'arduino'
p487
ssS'name'
p488
S'Arduino Ethernet'
p489
sS'upload'
p490
(dp491
S'speed'
p492
S'115200'
p493
sS'maximum_size'
p494
S'32256'
p495
sS'protocol'
p496
S'arduino'
p497
ssaa(lp498
S'fio'
p499
a(dp500
S'bootloader'
p501
(dp502
S'extended_fuses'
p503
S'0x05'
p504
sS'high_fuses'
p505
S'0xDA'
p506
sS'low_fuses'
p507
S'0xFF'
p508
sS'lock_bits'
p509
S'0x0F'
p510
sS'file'
p511
S'ATmegaBOOT_168_atmega328_pro_8MHz.hex'
p512
sS'path'
p513
S'arduino:atmega'
p514
sS'unlock_bits'
p515
S'0x3F'
p516
ssS'build'
p517
(dp518
S'core'
p519
S'arduino'
p520
sS'mcu'
p521
S'atmega328p'
p522
sS'f_cpu'
p523
S'8000000L'
p524
sS'variant'
p525
S'eightanaloginputs'
p526
ssS'name'
p527
S'Arduino Fio'
p528
sS'upload'
p529
(dp530
S'speed'
p531
S'57600'
p532
sS'maximum_size'
p533
S'30720'
p534
sS'protocol'
p535
S'arduino'
p536
ssaa(lp537
S'bt328'
p538
a(dp539
S'bootloader'
p540
(dp541
S'extended_fuses'
p542
S'0x05'
p543
sS'high_fuses'
p544
S'0xd8'
p545
sS'low_fuses'
p546
S'0xff'
p547
sS'lock_bits'
p548
S'0x0F'
p549
sS'file'
p550
S'ATmegaBOOT_168_atmega328_bt.hex'
p551
sS'path'
p552
S'bt'
p553
sS'unlock_bits'
p554
S'0x3F'
p555
ssS'build'
p556
(dp557
S'core'
p558
S'arduino'
p559
sS'mcu'
p560
S'atmega328p'
p561
sS'f_cpu'
p562
S'16000000L'
p563
sS'variant'
p564
S'eightanaloginputs'
p565
ssS'name'
p566
S'Arduino BT w/ ATmega328'
p567
sS'upload'
p568
(dp569
S'speed'
p570
S'19200'
p571
sS'maximum_size'
p572
S'28672'
p573
sS'protocol'
p574
S'arduino'
p575
sS'disable_flushing'
p576
S'true'
p577
ssaa(lp578
S'bt'
p579
a(dp580
S'bootloader'
p581
(dp582
S'extended_fuses'
p583
S'0x00'
p584
sS'high_fuses'
p585
S'0xdd'
p586
sS'low_fuses'
p587
S'0xff'
p588
sS'lock_bits'
p589
S'0x0F'
p590
sS'file'
p591
S'ATmegaBOOT_168.hex'
p592
sS'path'
p593
S'bt'
p594
sS'unlock_bits'
p595
S'0x3F'
p596
ssS'build'
p597
(dp598
S'core'
p599
S'arduino'
p600
sS'mcu'
p601
S'atmega168'
p602
sS'f_cpu'
p603
S'16000000L'
p604
sS'variant'
p605
S'eightanaloginputs'
p606
ssS'name'
p607
S'Arduino BT w/ ATmega168'
p608
sS'upload'
p609
(dp610
S'speed'
p611
S'19200'
p612
sS'maximum_size'
p613
S'14336'
p614
sS'protocol'
p615
S'arduino'
p616
sS'disable_flushing'
p617
S'true'
p618
ssaa(lp619
S'lilypad328'
p620
a(dp621
S'bootloader'
p622
(dp623
S'extended_fuses'
p624
S'0x05'
p625
sS'high_fuses'
p626
S'0xDA'
p627
sS'low_fuses'
p628
S'0xFF'
p629
sS'lock_bits'
p630
S'0x0F'
p631
sS'file'
p632
S'ATmegaBOOT_168_atmega328_pro_8MHz.hex'
p633
sS'path'
p634
S'atmega'
p635
sS'unlock_bits'
p636
S'0x3F'
p637
ssS'build'
p638
(dp639
S'core'
p640
S'arduino'
p641
sS'mcu'
p642
S'atmega328p'
p643
sS'f_cpu'
p644
S'8000000L'
p645
sS'variant'
p646
S'standard'
p647
ssS'name'
p648
S'LilyPad Arduino w/ ATmega328'
p649
sS'upload'
p650
(dp651
S'speed'
p652
S'57600'
p653
sS'maximum_size'
p654
S'30720'
p655
sS'protocol'
p656
S'arduino'
p657
ssaa(lp658
S'lilypad'
p659
a(dp660
S'bootloader'
p661
(dp662
S'extended_fuses'
p663
S'0x00'
p664
sS'high_fuses'
p665
S'0xdd'
p666
sS'low_fuses'
p667
S'0xe2'
p668
sS'lock_bits'
p669
S'0x0F'
p670
sS'file'
p671
S'LilyPadBOOT_168.hex'
p672
sS'path'
p673
S'lilypad'
p674
sS'unlock_bits'
p675
S'0x3F'
p676
ssS'build'
p677
(dp678
S'core'
p679
S'arduino'
p680
sS'mcu'
p681
S'atmega168'
p682
sS'f_cpu'
p683
S'8000000L'
p684
sS'variant'
p685
S'standard'
p686
ssS'name'
p687
S'LilyPad Arduino w/ ATmega168'
p688
sS'upload'
p689
(dp690
S'speed'
p691
S'19200'
p692
sS'maximum_size'
p693
S'14336'
p694
sS'protocol'
p695
S'arduino'
p696
ssaa(lp697
S'pro5v328'
p698
a(dp699
S'bootloader'
p700
(dp701
S'extended_fuses'
p702
S'0x05'
p703
sS'high_fuses'
p704
S'0xDA'
p705
sS'low_fuses'
p706
S'0xFF'
p707
sS'lock_bits'
p708
S'0x0F'
p709
sS'file'
p710
S'ATmegaBOOT_168_atmega328.hex'
p711
sS'path'
p712
S'atmega'
p713
sS'unlock_bits'
p714
S'0x3F'
p715
ssS'build'
p716
(dp717
S'core'
p718
S'arduino'
p719
sS'mcu'
p720
S'atmega328p'
p721
sS'f_cpu'
p722
S'16000000L'
p723
sS'variant'
p724
S'standard'
p725
ssS'name'
p726
S'Arduino Pro or Pro Mini (5V, 16 MHz) w/ ATmega328'
p727
sS'upload'
p728
(dp729
S'speed'
p730
S'57600'
p731
sS'maximum_size'
p732
S'30720'
p733
sS'protocol'
p734
S'arduino'
p735
ssaa(lp736
S'pro5v'
p737
a(dp738
S'bootloader'
p739
(dp740
S'extended_fuses'
p741
S'0x00'
p742
sS'high_fuses'
p743
S'0xdd'
p744
sS'low_fuses'
p745
S'0xff'
p746
sS'lock_bits'
p747
S'0x0F'
p748
sS'file'
p749
S'ATmegaBOOT_168_diecimila.hex'
p750
sS'path'
p751
S'atmega'
p752
sS'unlock_bits'
p753
S'0x3F'
p754
ssS'build'
p755
(dp756
S'core'
p757
S'arduino'
p758
sS'mcu'
p759
S'atmega168'
p760
sS'f_cpu'
p761
S'16000000L'
p762
sS'variant'
p763
S'standard'
p764
ssS'name'
p765
S'Arduino Pro or Pro Mini (5V, 16 MHz) w/ ATmega168'
p766
sS'upload'
p767
(dp768
S'speed'
p769
S'19200'
p770
sS'maximum_size'
p771
S'14336'
p772
sS'protocol'
p773
S'arduino'
p774
ssaa(lp775
S'pro328'
p776
a(dp777
S'bootloader'
p778
(dp779
S'extended_fuses'
p780
S'0x05'
p781
sS'high_fuses'
p782
S'0xDA'
p783
sS'low_fuses'
p784
S'0xFF'
p785
sS'lock_bits'
p786
S'0x0F'
p787
sS'file'
p788
S'ATmegaBOOT_168_atmega328_pro_8MHz.hex'
p789
sS'path'
p790
S'atmega'
p791
sS'unlock_bits'
p792
S'0x3F'
p793
ssS'build'
p794
(dp795
S'core'
p796
S'arduino'
p797
sS'mcu'
p798
S'atmega328p'
p799
sS'f_cpu'
p800
S'8000000L'
p801
sS'variant'
p802
S'standard'
p803
ssS'name'
p804
S'Arduino Pro or Pro Mini (3.3V, 8 MHz) w/ ATmega328'
p805
sS'upload'
p806
(dp807
S'speed'
p808
S'57600'
p809
sS'maximum_size'
p810
S'30720'
p811
sS'protocol'
p812
S'arduino'
p813
ssaa(lp814
S'pro'
p815
a(dp816
S'bootloader'
p817
(dp818
S'extended_fuses'
p819
S'0x00'
p820
sS'high_fuses'
p821
S'0xdd'
p822
sS'low_fuses'
p823
S'0xc6'
p824
sS'lock_bits'
p825
S'0x0F'
p826
sS'file'
p827
S'ATmegaBOOT_168_pro_8MHz.hex'
p828
sS'path'
p829
S'atmega'
p830
sS'unlock_bits'
p831
S'0x3F'
p832
ssS'build'
p833
(dp834
S'core'
p835
S'arduino'
p836
sS'mcu'
p837
S'atmega168'
p838
sS'f_cpu'
p839
S'8000000L'
p840
sS'variant'
p841
S'standard'
p842
ssS'name'
p843
S'Arduino Pro or Pro Mini (3.3V, 8 MHz) w/ ATmega168'
p844
sS'upload'
p845
(dp846
S'speed'
p847
S'19200'
p848
sS'maximum_size'
p849
S'14336'
p850
sS'protocol'
p851
S'arduino'
p852
ssaa(lp853
S'atmega168'
p854
a(dp855
S'bootloader'
p856
(dp857
S'extended_fuses'
p858
S'0x00'
p859
sS'high_fuses'
p860
S'0xdd'
p861
sS'low_fuses'
p862
S'0xff'
p863
sS'lock_bits'
p864
S'0x0F'
p865
sS'file'
p866
S'ATmegaBOOT_168_ng.hex'
p867
sS'path'
p868
S'atmega'
p869
sS'unlock_bits'
p870
S'0x3F'
p871
ssS'build'
p872
(dp873
S'core'
p874
S'arduino'
p875
sS'mcu'
p876
S'atmega168'
p877
sS'f_cpu'
p878
S'16000000L'
p879
sS'variant'
p880
S'standard'
p881
ssS'name'
p882
S'Arduino NG or older w/ ATmega168'
p883
sS'upload'
p884
(dp885
S'speed'
p886
S'19200'
p887
sS'maximum_size'
p888
S'14336'
p889
sS'protocol'
p890
S'arduino'
p891
ssaa(lp892
S'atmega8'
p893
a(dp894
S'bootloader'
p895
(dp896
S'high_fuses'
p897
S'0xca'
p898
sS'low_fuses'
p899
S'0xdf'
p900
sS'lock_bits'
p901
S'0x0F'
p902
sS'file'
p903
S'ATmegaBOOT.hex'
p904
sS'path'
p905
S'atmega8'
p906
sS'unlock_bits'
p907
S'0x3F'
p908
ssS'build'
p909
(dp910
S'core'
p911
S'arduino'
p912
sS'mcu'
p913
S'atmega8'
p914
sS'f_cpu'
p915
S'16000000L'
p916
sS'variant'
p917
S'standard'
p918
ssS'name'
p919
S'Arduino NG or older w/ ATmega8'
p920
sS'upload'
p921
(dp922
S'speed'
p923
S'19200'
p924
sS'maximum_size'
p925
S'7168'
p926
sS'protocol'
p927
S'arduino'
p928
ssaatp929
Rp930
(dp931
S'default'
p932
S'uno'
p933
sbtp934
a(S'used_libs'
p935
(lp936
S'/usr/share/arduino/hardware/arduino/cores/arduino'
p937
atp938
a(S'make'
p939
S'/usr/bin/make'
p940
tp941
a(S'arduino_libraries_dir'
p942
S'/usr/share/arduino/libraries'
p943
tp944
a(S'cc'
p945
S'/usr/bin/avr-gcc'
p946
tp947
a(S'cflags'
p948
g2
(g3
g4
(lp949
tp950
Rp951
tp952
a(S'cxxflags'
p953
g2
(g3
g4
(lp954
S'-fno-exceptions'
p955
atp956
Rp957
tp958
a(S'arduino_variants_dir'
p959
S'/usr/share/arduino/hardware/arduino/variants'
p960
tp961
a(S'serial'
p962
S'/usr/bin/picocom'
p963
tp964
a(S'stty'
p965
S'/bin/stty'
p966
tp967
a(S'version.txt'
p968
S'/usr/share/arduino/lib/version.txt'
p969
tp970
a(S'arduino_core_dir'
p971
g937
tp972
a(S'boards.txt'
p973
S'/usr/share/arduino/hardware/arduino/boards.txt'
p974
tp975
a(S'avrdude.conf'
p976
S'/usr/share/arduino/hardware/tools/avrdude.conf'
p977
tp978
a(g38
g2
(g3
g4
(lp979
S'.build/uno/src/dependencies.d'
p980
aS'.build/uno/arduino/dependencies.d'
p981
atp982
Rp983
tp984
a.