(lp0
(S'cppflags'
p1
ccopy_reg
_reconstructor
p2
(cino.utils
SpaceList
p3
c__builtin__
list
p4
(lp5
S'-mmcu=atmega328p'
p6
aS'-DF_CPU=16000000L'
p7
aS'-DARDUINO=101'
p8
aS'-I/usr/share/arduino/hardware/arduino/cores/arduino'
p9
aS'-ffunction-sections'
p10
aS'-fdata-sections'
p11
aS'-g'
p12
aS'-Os'
p13
aS'-w'
p14
aS'-I/usr/share/arduino/hardware/arduino/variants/standard'
p15
aS'-I/usr/share/arduino/hardware/arduino/cores/arduino'
p16
atp17
Rp18
tp19
a(S'cxx'
p20
S'/usr/bin/avr-g++'
p21
tp22
a(S'build_dir'
p23
S'.build/uno'
p24
tp25
a(S'avrdude'
p26
S'/usr/share/arduino/hardware/tools/avrdude'
p27
tp28
a(S'ar'
p29
S'/usr/bin/avr-ar'
p30
tp31
a(S'names'
p32
(dp33
S'cpp'
p34
S'%s.cpp'
p35
sS'obj'
p36
S'%s.o'
p37
sS'deps'
p38
S'%s.d'
p39
sS'lib'
p40
S'lib%s.a'
p41
stp42
a(S'ldflags'
p43
g2
(g3
g4
(lp44
g6
aS'-Wl,-Os'
p45
aS'-Wl,--gc-sections'
p46
atp47
Rp48
tp49
a(S'arduino_lib_version'
p50
g2
(cino.environment
Version
p51
c__builtin__
tuple
p52
(I1
I0
I1
tp53
tp54
Rp55
tp56
a(S'objcopy'
p57
S'/usr/bin/avr-objcopy'
p58
tp59
a(S'board_models'
p60
cino.environment
BoardModels
p61
((lp62
(lp63
S'uno'
p64
a(dp65
S'bootloader'
p66
(dp67
S'extended_fuses'
p68
S'0x05'
p69
sS'high_fuses'
p70
S'0xde'
p71
sS'low_fuses'
p72
S'0xff'
p73
sS'lock_bits'
p74
S'0x0F'
p75
sS'file'
p76
S'optiboot_atmega328.hex'
p77
sS'path'
p78
S'optiboot'
p79
sS'unlock_bits'
p80
S'0x3F'
p81
ssS'upload'
p82
(dp83
S'speed'
p84
S'115200'
p85
sS'maximum_size'
p86
S'32256'
p87
sS'protocol'
p88
S'arduino'
p89
ssS'name'
p90
S'Arduino Uno'
p91
sS'build'
p92
(dp93
S'core'
p94
S'arduino'
p95
sS'mcu'
p96
S'atmega328p'
p97
sS'f_cpu'
p98
S'16000000L'
p99
sS'variant'
p100
S'standard'
p101
ssaa(lp102
S'atmega328'
p103
a(dp104
S'bootloader'
p105
(dp106
S'extended_fuses'
p107
S'0x05'
p108
sS'high_fuses'
p109
S'0xDA'
p110
sS'low_fuses'
p111
S'0xFF'
p112
sS'lock_bits'
p113
S'0x0F'
p114
sS'file'
p115
S'ATmegaBOOT_168_atmega328.hex'
p116
sS'path'
p117
S'atmega'
p118
sS'unlock_bits'
p119
S'0x3F'
p120
ssS'upload'
p121
(dp122
S'speed'
p123
S'57600'
p124
sS'maximum_size'
p125
S'30720'
p126
sS'protocol'
p127
S'arduino'
p128
ssS'name'
p129
S'Arduino Duemilanove w/ ATmega328'
p130
sS'build'
p131
(dp132
S'core'
p133
S'arduino'
p134
sS'mcu'
p135
S'atmega328p'
p136
sS'f_cpu'
p137
S'16000000L'
p138
sS'variant'
p139
S'standard'
p140
ssaa(lp141
S'diecimila'
p142
a(dp143
S'bootloader'
p144
(dp145
S'extended_fuses'
p146
S'0x00'
p147
sS'high_fuses'
p148
S'0xdd'
p149
sS'low_fuses'
p150
S'0xff'
p151
sS'lock_bits'
p152
S'0x0F'
p153
sS'file'
p154
S'ATmegaBOOT_168_diecimila.hex'
p155
sS'path'
p156
S'atmega'
p157
sS'unlock_bits'
p158
S'0x3F'
p159
ssS'upload'
p160
(dp161
S'speed'
p162
S'19200'
p163
sS'maximum_size'
p164
S'14336'
p165
sS'protocol'
p166
S'arduino'
p167
ssS'name'
p168
S'Arduino Diecimila or Duemilanove w/ ATmega168'
p169
sS'build'
p170
(dp171
S'core'
p172
S'arduino'
p173
sS'mcu'
p174
S'atmega168'
p175
sS'f_cpu'
p176
S'16000000L'
p177
sS'variant'
p178
S'standard'
p179
ssaa(lp180
S'nano328'
p181
a(dp182
S'bootloader'
p183
(dp184
S'extended_fuses'
p185
S'0x05'
p186
sS'high_fuses'
p187
S'0xDA'
p188
sS'low_fuses'
p189
S'0xFF'
p190
sS'lock_bits'
p191
S'0x0F'
p192
sS'file'
p193
S'ATmegaBOOT_168_atmega328.hex'
p194
sS'path'
p195
S'atmega'
p196
sS'unlock_bits'
p197
S'0x3F'
p198
ssS'upload'
p199
(dp200
S'speed'
p201
S'57600'
p202
sS'maximum_size'
p203
S'30720'
p204
sS'protocol'
p205
S'arduino'
p206
ssS'name'
p207
S'Arduino Nano w/ ATmega328'
p208
sS'build'
p209
(dp210
S'core'
p211
S'arduino'
p212
sS'mcu'
p213
S'atmega328p'
p214
sS'f_cpu'
p215
S'16000000L'
p216
sS'variant'
p217
S'eightanaloginputs'
p218
ssaa(lp219
S'nano'
p220
a(dp221
S'bootloader'
p222
(dp223
S'extended_fuses'
p224
S'0x00'
p225
sS'high_fuses'
p226
S'0xdd'
p227
sS'low_fuses'
p228
S'0xff'
p229
sS'lock_bits'
p230
S'0x0F'
p231
sS'file'
p232
S'ATmegaBOOT_168_diecimila.hex'
p233
sS'path'
p234
S'atmega'
p235
sS'unlock_bits'
p236
S'0x3F'
p237
ssS'upload'
p238
(dp239
S'speed'
p240
S'19200'
p241
sS'maximum_size'
p242
S'14336'
p243
sS'protocol'
p244
S'arduino'
p245
ssS'name'
p246
S'Arduino Nano w/ ATmega168'
p247
sS'build'
p248
(dp249
S'core'
p250
S'arduino'
p251
sS'mcu'
p252
S'atmega168'
p253
sS'f_cpu'
p254
S'16000000L'
p255
sS'variant'
p256
S'eightanaloginputs'
p257
ssaa(lp258
S'mega2560'
p259
a(dp260
S'bootloader'
p261
(dp262
S'extended_fuses'
p263
S'0xFD'
p264
sS'high_fuses'
p265
S'0xD8'
p266
sS'low_fuses'
p267
S'0xFF'
p268
sS'lock_bits'
p269
S'0x0F'
p270
sS'file'
p271
S'stk500boot_v2_mega2560.hex'
p272
sS'path'
p273
S'stk500v2'
p274
sS'unlock_bits'
p275
S'0x3F'
p276
ssS'upload'
p277
(dp278
S'speed'
p279
S'115200'
p280
sS'maximum_size'
p281
S'258048'
p282
sS'protocol'
p283
S'stk500v2'
p284
ssS'name'
p285
S'Arduino Mega 2560 or Mega ADK'
p286
sS'build'
p287
(dp288
S'core'
p289
S'arduino'
p290
sS'mcu'
p291
S'atmega2560'
p292
sS'f_cpu'
p293
S'16000000L'
p294
sS'variant'
p295
S'mega'
p296
ssaa(lp297
S'mega'
p298
a(dp299
S'bootloader'
p300
(dp301
S'extended_fuses'
p302
S'0xF5'
p303
sS'high_fuses'
p304
S'0xDA'
p305
sS'low_fuses'
p306
S'0xFF'
p307
sS'lock_bits'
p308
S'0x0F'
p309
sS'file'
p310
S'ATmegaBOOT_168_atmega1280.hex'
p311
sS'path'
p312
S'atmega'
p313
sS'unlock_bits'
p314
S'0x3F'
p315
ssS'upload'
p316
(dp317
S'speed'
p318
S'57600'
p319
sS'maximum_size'
p320
S'126976'
p321
sS'protocol'
p322
S'arduino'
p323
ssS'name'
p324
S'Arduino Mega (ATmega1280)'
p325
sS'build'
p326
(dp327
S'core'
p328
S'arduino'
p329
sS'mcu'
p330
S'atmega1280'
p331
sS'f_cpu'
p332
S'16000000L'
p333
sS'variant'
p334
S'mega'
p335
ssaa(lp336
S'leonardo'
p337
a(dp338
S'bootloader'
p339
(dp340
S'extended_fuses'
p341
S'0xcb'
p342
sS'high_fuses'
p343
S'0xd8'
p344
sS'low_fuses'
p345
S'0xff'
p346
sS'lock_bits'
p347
S'0x2F'
p348
sS'file'
p349
S'Caterina-Leonardo.hex'
p350
sS'path'
p351
S'caterina'
p352
sS'unlock_bits'
p353
S'0x3F'
p354
ssS'upload'
p355
(dp356
S'speed'
p357
S'57600'
p358
sS'maximum_size'
p359
S'28672'
p360
sS'protocol'
p361
S'avr109'
p362
sS'disable_flushing'
p363
S'true'
p364
ssS'name'
p365
S'Arduino Leonardo'
p366
sS'build'
p367
(dp368
S'core'
p369
S'arduino'
p370
sS'f_cpu'
p371
S'16000000L'
p372
sS'vid'
p373
S'0x2341'
p374
sS'pid'
p375
S'0x8036'
p376
sS'variant'
p377
S'leonardo'
p378
sS'mcu'
p379
S'atmega32u4'
p380
ssaa(lp381
S'mini328'
p382
a(dp383
S'bootloader'
p384
(dp385
S'extended_fuses'
p386
S'0x05'
p387
sS'high_fuses'
p388
S'0xd8'
p389
sS'low_fuses'
p390
S'0xff'
p391
sS'lock_bits'
p392
S'0x0F'
p393
sS'file'
p394
S'optiboot_atmega328-Mini.hex'
p395
sS'path'
p396
S'optiboot'
p397
sS'unlock_bits'
p398
S'0x3F'
p399
ssS'upload'
p400
(dp401
S'speed'
p402
S'115200'
p403
sS'maximum_size'
p404
S'28672'
p405
sS'protocol'
p406
S'arduino'
p407
ssS'name'
p408
S'Arduino Mini w/ ATmega328'
p409
sS'build'
p410
(dp411
S'core'
p412
S'arduino'
p413
sS'mcu'
p414
S'atmega328p'
p415
sS'f_cpu'
p416
S'16000000L'
p417
sS'variant'
p418
S'eightanaloginputs'
p419
ssaa(lp420
S'mini'
p421
a(dp422
S'bootloader'
p423
(dp424
S'extended_fuses'
p425
S'0x00'
p426
sS'high_fuses'
p427
S'0xdd'
p428
sS'low_fuses'
p429
S'0xff'
p430
sS'lock_bits'
p431
S'0x0F'
p432
sS'file'
p433
S'ATmegaBOOT_168_ng.hex'
p434
sS'path'
p435
S'atmega'
p436
sS'unlock_bits'
p437
S'0x3F'
p438
ssS'upload'
p439
(dp440
S'speed'
p441
S'19200'
p442
sS'maximum_size'
p443
S'14336'
p444
sS'protocol'
p445
S'arduino'
p446
ssS'name'
p447
S'Arduino Mini w/ ATmega168'
p448
sS'build'
p449
(dp450
S'core'
p451
S'arduino'
p452
sS'mcu'
p453
S'atmega168'
p454
sS'f_cpu'
p455
S'16000000L'
p456
sS'variant'
p457
S'eightanaloginputs'
p458
ssaa(lp459
S'ethernet'
p460
a(dp461
S'bootloader'
p462
(dp463
S'extended_fuses'
p464
S'0x05'
p465
sS'high_fuses'
p466
S'0xde'
p467
sS'low_fuses'
p468
S'0xff'
p469
sS'lock_bits'
p470
S'0x0F'
p471
sS'file'
p472
S'optiboot_atmega328.hex'
p473
sS'path'
p474
S'optiboot'
p475
sS'unlock_bits'
p476
S'0x3F'
p477
ssS'upload'
p478
(dp479
S'speed'
p480
S'115200'
p481
sS'maximum_size'
p482
S'32256'
p483
sS'protocol'
p484
S'arduino'
p485
ssS'name'
p486
S'Arduino Ethernet'
p487
sS'build'
p488
(dp489
S'f_cpu'
p490
S'16000000L'
p491
sS'mcu'
p492
S'atmega328p'
p493
sS'variant'
p494
S'standard'
p495
sS'core'
p496
S'arduino'
p497
ssaa(lp498
S'fio'
p499
a(dp500
S'bootloader'
p501
(dp502
S'extended_fuses'
p503
S'0x05'
p504
sS'high_fuses'
p505
S'0xDA'
p506
sS'low_fuses'
p507
S'0xFF'
p508
sS'lock_bits'
p509
S'0x0F'
p510
sS'file'
p511
S'ATmegaBOOT_168_atmega328_pro_8MHz.hex'
p512
sS'path'
p513
S'arduino:atmega'
p514
sS'unlock_bits'
p515
S'0x3F'
p516
ssS'upload'
p517
(dp518
S'speed'
p519
S'57600'
p520
sS'maximum_size'
p521
S'30720'
p522
sS'protocol'
p523
S'arduino'
p524
ssS'name'
p525
S'Arduino Fio'
p526
sS'build'
p527
(dp528
S'core'
p529
S'arduino'
p530
sS'mcu'
p531
S'atmega328p'
p532
sS'f_cpu'
p533
S'8000000L'
p534
sS'variant'
p535
S'eightanaloginputs'
p536
ssaa(lp537
S'bt328'
p538
a(dp539
S'bootloader'
p540
(dp541
S'extended_fuses'
p542
S'0x05'
p543
sS'high_fuses'
p544
S'0xd8'
p545
sS'low_fuses'
p546
S'0xff'
p547
sS'lock_bits'
p548
S'0x0F'
p549
sS'file'
p550
S'ATmegaBOOT_168_atmega328_bt.hex'
p551
sS'path'
p552
S'bt'
p553
sS'unlock_bits'
p554
S'0x3F'
p555
ssS'upload'
p556
(dp557
S'speed'
p558
S'19200'
p559
sS'maximum_size'
p560
S'28672'
p561
sS'protocol'
p562
S'arduino'
p563
sS'disable_flushing'
p564
S'true'
p565
ssS'name'
p566
S'Arduino BT w/ ATmega328'
p567
sS'build'
p568
(dp569
S'core'
p570
S'arduino'
p571
sS'mcu'
p572
S'atmega328p'
p573
sS'f_cpu'
p574
S'16000000L'
p575
sS'variant'
p576
S'eightanaloginputs'
p577
ssaa(lp578
S'bt'
p579
a(dp580
S'bootloader'
p581
(dp582
S'extended_fuses'
p583
S'0x00'
p584
sS'high_fuses'
p585
S'0xdd'
p586
sS'low_fuses'
p587
S'0xff'
p588
sS'lock_bits'
p589
S'0x0F'
p590
sS'file'
p591
S'ATmegaBOOT_168.hex'
p592
sS'path'
p593
S'bt'
p594
sS'unlock_bits'
p595
S'0x3F'
p596
ssS'upload'
p597
(dp598
S'speed'
p599
S'19200'
p600
sS'maximum_size'
p601
S'14336'
p602
sS'protocol'
p603
S'arduino'
p604
sS'disable_flushing'
p605
S'true'
p606
ssS'name'
p607
S'Arduino BT w/ ATmega168'
p608
sS'build'
p609
(dp610
S'core'
p611
S'arduino'
p612
sS'mcu'
p613
S'atmega168'
p614
sS'f_cpu'
p615
S'16000000L'
p616
sS'variant'
p617
S'eightanaloginputs'
p618
ssaa(lp619
S'lilypad328'
p620
a(dp621
S'bootloader'
p622
(dp623
S'extended_fuses'
p624
S'0x05'
p625
sS'high_fuses'
p626
S'0xDA'
p627
sS'low_fuses'
p628
S'0xFF'
p629
sS'lock_bits'
p630
S'0x0F'
p631
sS'file'
p632
S'ATmegaBOOT_168_atmega328_pro_8MHz.hex'
p633
sS'path'
p634
S'atmega'
p635
sS'unlock_bits'
p636
S'0x3F'
p637
ssS'upload'
p638
(dp639
S'speed'
p640
S'57600'
p641
sS'maximum_size'
p642
S'30720'
p643
sS'protocol'
p644
S'arduino'
p645
ssS'name'
p646
S'LilyPad Arduino w/ ATmega328'
p647
sS'build'
p648
(dp649
S'core'
p650
S'arduino'
p651
sS'mcu'
p652
S'atmega328p'
p653
sS'f_cpu'
p654
S'8000000L'
p655
sS'variant'
p656
S'standard'
p657
ssaa(lp658
S'lilypad'
p659
a(dp660
S'bootloader'
p661
(dp662
S'extended_fuses'
p663
S'0x00'
p664
sS'high_fuses'
p665
S'0xdd'
p666
sS'low_fuses'
p667
S'0xe2'
p668
sS'lock_bits'
p669
S'0x0F'
p670
sS'file'
p671
S'LilyPadBOOT_168.hex'
p672
sS'path'
p673
S'lilypad'
p674
sS'unlock_bits'
p675
S'0x3F'
p676
ssS'upload'
p677
(dp678
S'speed'
p679
S'19200'
p680
sS'maximum_size'
p681
S'14336'
p682
sS'protocol'
p683
S'arduino'
p684
ssS'name'
p685
S'LilyPad Arduino w/ ATmega168'
p686
sS'build'
p687
(dp688
S'core'
p689
S'arduino'
p690
sS'mcu'
p691
S'atmega168'
p692
sS'f_cpu'
p693
S'8000000L'
p694
sS'variant'
p695
S'standard'
p696
ssaa(lp697
S'pro5v328'
p698
a(dp699
S'bootloader'
p700
(dp701
S'extended_fuses'
p702
S'0x05'
p703
sS'high_fuses'
p704
S'0xDA'
p705
sS'low_fuses'
p706
S'0xFF'
p707
sS'lock_bits'
p708
S'0x0F'
p709
sS'file'
p710
S'ATmegaBOOT_168_atmega328.hex'
p711
sS'path'
p712
S'atmega'
p713
sS'unlock_bits'
p714
S'0x3F'
p715
ssS'upload'
p716
(dp717
S'speed'
p718
S'57600'
p719
sS'maximum_size'
p720
S'30720'
p721
sS'protocol'
p722
S'arduino'
p723
ssS'name'
p724
S'Arduino Pro or Pro Mini (5V, 16 MHz) w/ ATmega328'
p725
sS'build'
p726
(dp727
S'core'
p728
S'arduino'
p729
sS'mcu'
p730
S'atmega328p'
p731
sS'f_cpu'
p732
S'16000000L'
p733
sS'variant'
p734
S'standard'
p735
ssaa(lp736
S'pro5v'
p737
a(dp738
S'bootloader'
p739
(dp740
S'extended_fuses'
p741
S'0x00'
p742
sS'high_fuses'
p743
S'0xdd'
p744
sS'low_fuses'
p745
S'0xff'
p746
sS'lock_bits'
p747
S'0x0F'
p748
sS'file'
p749
S'ATmegaBOOT_168_diecimila.hex'
p750
sS'path'
p751
S'atmega'
p752
sS'unlock_bits'
p753
S'0x3F'
p754
ssS'upload'
p755
(dp756
S'speed'
p757
S'19200'
p758
sS'maximum_size'
p759
S'14336'
p760
sS'protocol'
p761
S'arduino'
p762
ssS'name'
p763
S'Arduino Pro or Pro Mini (5V, 16 MHz) w/ ATmega168'
p764
sS'build'
p765
(dp766
S'core'
p767
S'arduino'
p768
sS'mcu'
p769
S'atmega168'
p770
sS'f_cpu'
p771
S'16000000L'
p772
sS'variant'
p773
S'standard'
p774
ssaa(lp775
S'pro328'
p776
a(dp777
S'bootloader'
p778
(dp779
S'extended_fuses'
p780
S'0x05'
p781
sS'high_fuses'
p782
S'0xDA'
p783
sS'low_fuses'
p784
S'0xFF'
p785
sS'lock_bits'
p786
S'0x0F'
p787
sS'file'
p788
S'ATmegaBOOT_168_atmega328_pro_8MHz.hex'
p789
sS'path'
p790
S'atmega'
p791
sS'unlock_bits'
p792
S'0x3F'
p793
ssS'upload'
p794
(dp795
S'speed'
p796
S'57600'
p797
sS'maximum_size'
p798
S'30720'
p799
sS'protocol'
p800
S'arduino'
p801
ssS'name'
p802
S'Arduino Pro or Pro Mini (3.3V, 8 MHz) w/ ATmega328'
p803
sS'build'
p804
(dp805
S'core'
p806
S'arduino'
p807
sS'mcu'
p808
S'atmega328p'
p809
sS'f_cpu'
p810
S'8000000L'
p811
sS'variant'
p812
S'standard'
p813
ssaa(lp814
S'pro'
p815
a(dp816
S'bootloader'
p817
(dp818
S'extended_fuses'
p819
S'0x00'
p820
sS'high_fuses'
p821
S'0xdd'
p822
sS'low_fuses'
p823
S'0xc6'
p824
sS'lock_bits'
p825
S'0x0F'
p826
sS'file'
p827
S'ATmegaBOOT_168_pro_8MHz.hex'
p828
sS'path'
p829
S'atmega'
p830
sS'unlock_bits'
p831
S'0x3F'
p832
ssS'upload'
p833
(dp834
S'speed'
p835
S'19200'
p836
sS'maximum_size'
p837
S'14336'
p838
sS'protocol'
p839
S'arduino'
p840
ssS'name'
p841
S'Arduino Pro or Pro Mini (3.3V, 8 MHz) w/ ATmega168'
p842
sS'build'
p843
(dp844
S'core'
p845
S'arduino'
p846
sS'mcu'
p847
S'atmega168'
p848
sS'f_cpu'
p849
S'8000000L'
p850
sS'variant'
p851
S'standard'
p852
ssaa(lp853
S'atmega168'
p854
a(dp855
S'bootloader'
p856
(dp857
S'extended_fuses'
p858
S'0x00'
p859
sS'high_fuses'
p860
S'0xdd'
p861
sS'low_fuses'
p862
S'0xff'
p863
sS'lock_bits'
p864
S'0x0F'
p865
sS'file'
p866
S'ATmegaBOOT_168_ng.hex'
p867
sS'path'
p868
S'atmega'
p869
sS'unlock_bits'
p870
S'0x3F'
p871
ssS'upload'
p872
(dp873
S'speed'
p874
S'19200'
p875
sS'maximum_size'
p876
S'14336'
p877
sS'protocol'
p878
S'arduino'
p879
ssS'name'
p880
S'Arduino NG or older w/ ATmega168'
p881
sS'build'
p882
(dp883
S'core'
p884
S'arduino'
p885
sS'mcu'
p886
S'atmega168'
p887
sS'f_cpu'
p888
S'16000000L'
p889
sS'variant'
p890
S'standard'
p891
ssaa(lp892
S'atmega8'
p893
a(dp894
S'bootloader'
p895
(dp896
S'high_fuses'
p897
S'0xca'
p898
sS'low_fuses'
p899
S'0xdf'
p900
sS'lock_bits'
p901
S'0x0F'
p902
sS'file'
p903
S'ATmegaBOOT.hex'
p904
sS'path'
p905
S'atmega8'
p906
sS'unlock_bits'
p907
S'0x3F'
p908
ssS'upload'
p909
(dp910
S'speed'
p911
S'19200'
p912
sS'maximum_size'
p913
S'7168'
p914
sS'protocol'
p915
S'arduino'
p916
ssS'name'
p917
S'Arduino NG or older w/ ATmega8'
p918
sS'build'
p919
(dp920
S'core'
p921
S'arduino'
p922
sS'mcu'
p923
S'atmega8'
p924
sS'f_cpu'
p925
S'16000000L'
p926
sS'variant'
p927
S'standard'
p928
ssaatp929
Rp930
(dp931
S'default'
p932
S'uno'
p933
sbtp934
a(S'used_libs'
p935
(lp936
S'/usr/share/arduino/hardware/arduino/cores/arduino'
p937
atp938
a(S'make'
p939
S'/usr/bin/make'
p940
tp941
a(S'arduino_libraries_dir'
p942
S'/usr/share/arduino/libraries'
p943
tp944
a(S'cc'
p945
S'/usr/bin/avr-gcc'
p946
tp947
a(S'cflags'
p948
g2
(g3
g4
(lp949
tp950
Rp951
tp952
a(S'cxxflags'
p953
g2
(g3
g4
(lp954
S'-fno-exceptions'
p955
atp956
Rp957
tp958
a(S'arduino_variants_dir'
p959
S'/usr/share/arduino/hardware/arduino/variants'
p960
tp961
a(S'stty'
p962
S'/bin/stty'
p963
tp964
a(S'version.txt'
p965
S'/usr/share/arduino/lib/version.txt'
p966
tp967
a(S'arduino_core_dir'
p968
g937
tp969
a(S'boards.txt'
p970
S'/usr/share/arduino/hardware/arduino/boards.txt'
p971
tp972
a(S'avrdude.conf'
p973
S'/usr/share/arduino/hardware/tools/avrdude.conf'
p974
tp975
a(g38
g2
(g3
g4
(lp976
S'.build/uno/src/dependencies.d'
p977
aS'.build/uno/arduino/dependencies.d'
p978
atp979
Rp980
tp981
a.