(lp0
(S'cppflags'
p1
ccopy_reg
_reconstructor
p2
(cino.utils
SpaceList
p3
c__builtin__
list
p4
(lp5
S'-mmcu=atmega328p'
p6
aS'-DF_CPU=16000000L'
p7
aS'-DARDUINO=101'
p8
aS'-I/usr/share/arduino/hardware/arduino/cores/arduino'
p9
aS'-ffunction-sections'
p10
aS'-fdata-sections'
p11
aS'-g'
p12
aS'-Os'
p13
aS'-w'
p14
aS'-I/usr/share/arduino/hardware/arduino/variants/standard'
p15
aS'-I/usr/share/arduino/hardware/arduino/cores/arduino'
p16
atp17
Rp18
tp19
a(S'cxx'
p20
S'/usr/bin/avr-g++'
p21
tp22
a(S'build_dir'
p23
S'.build/uno'
p24
tp25
a(S'avrdude'
p26
S'/usr/share/arduino/hardware/tools/avrdude'
p27
tp28
a(S'ar'
p29
S'/usr/bin/avr-ar'
p30
tp31
a(S'names'
p32
(dp33
S'cpp'
p34
S'%s.cpp'
p35
sS'obj'
p36
S'%s.o'
p37
sS'deps'
p38
S'%s.d'
p39
sS'lib'
p40
S'lib%s.a'
p41
stp42
a(S'ldflags'
p43
g2
(g3
g4
(lp44
g6
aS'-Wl,-Os'
p45
aS'-Wl,--gc-sections'
p46
atp47
Rp48
tp49
a(S'arduino_lib_version'
p50
g2
(cino.environment
Version
p51
c__builtin__
tuple
p52
(I1
I0
I1
tp53
tp54
Rp55
tp56
a(S'objcopy'
p57
S'/usr/bin/avr-objcopy'
p58
tp59
a(S'board_models'
p60
cino.environment
BoardModels
p61
((lp62
(lp63
S'uno'
p64
a(dp65
S'bootloader'
p66
(dp67
S'extended_fuses'
p68
S'0x05'
p69
sS'high_fuses'
p70
S'0xde'
p71
sS'low_fuses'
p72
S'0xff'
p73
sS'lock_bits'
p74
S'0x0F'
p75
sS'file'
p76
S'optiboot_atmega328.hex'
p77
sS'path'
p78
S'optiboot'
p79
sS'unlock_bits'
p80
S'0x3F'
p81
ssS'upload'
p82
(dp83
S'protocol'
p84
S'arduino'
p85
sS'maximum_size'
p86
S'32256'
p87
sS'speed'
p88
S'115200'
p89
ssS'build'
p90
(dp91
S'core'
p92
S'arduino'
p93
sS'mcu'
p94
S'atmega328p'
p95
sS'f_cpu'
p96
S'16000000L'
p97
sS'variant'
p98
S'standard'
p99
ssS'name'
p100
S'Arduino Uno'
p101
saa(lp102
S'atmega328'
p103
a(dp104
S'bootloader'
p105
(dp106
S'extended_fuses'
p107
S'0x05'
p108
sS'high_fuses'
p109
S'0xDA'
p110
sS'low_fuses'
p111
S'0xFF'
p112
sS'lock_bits'
p113
S'0x0F'
p114
sS'file'
p115
S'ATmegaBOOT_168_atmega328.hex'
p116
sS'path'
p117
S'atmega'
p118
sS'unlock_bits'
p119
S'0x3F'
p120
ssS'upload'
p121
(dp122
S'protocol'
p123
S'arduino'
p124
sS'maximum_size'
p125
S'30720'
p126
sS'speed'
p127
S'57600'
p128
ssS'build'
p129
(dp130
S'core'
p131
S'arduino'
p132
sS'mcu'
p133
S'atmega328p'
p134
sS'f_cpu'
p135
S'16000000L'
p136
sS'variant'
p137
S'standard'
p138
ssS'name'
p139
S'Arduino Duemilanove w/ ATmega328'
p140
saa(lp141
S'diecimila'
p142
a(dp143
S'bootloader'
p144
(dp145
S'extended_fuses'
p146
S'0x00'
p147
sS'high_fuses'
p148
S'0xdd'
p149
sS'low_fuses'
p150
S'0xff'
p151
sS'lock_bits'
p152
S'0x0F'
p153
sS'file'
p154
S'ATmegaBOOT_168_diecimila.hex'
p155
sS'path'
p156
S'atmega'
p157
sS'unlock_bits'
p158
S'0x3F'
p159
ssS'upload'
p160
(dp161
S'protocol'
p162
S'arduino'
p163
sS'maximum_size'
p164
S'14336'
p165
sS'speed'
p166
S'19200'
p167
ssS'build'
p168
(dp169
S'core'
p170
S'arduino'
p171
sS'mcu'
p172
S'atmega168'
p173
sS'f_cpu'
p174
S'16000000L'
p175
sS'variant'
p176
S'standard'
p177
ssS'name'
p178
S'Arduino Diecimila or Duemilanove w/ ATmega168'
p179
saa(lp180
S'nano328'
p181
a(dp182
S'bootloader'
p183
(dp184
S'extended_fuses'
p185
S'0x05'
p186
sS'high_fuses'
p187
S'0xDA'
p188
sS'low_fuses'
p189
S'0xFF'
p190
sS'lock_bits'
p191
S'0x0F'
p192
sS'file'
p193
S'ATmegaBOOT_168_atmega328.hex'
p194
sS'path'
p195
S'atmega'
p196
sS'unlock_bits'
p197
S'0x3F'
p198
ssS'upload'
p199
(dp200
S'protocol'
p201
S'arduino'
p202
sS'maximum_size'
p203
S'30720'
p204
sS'speed'
p205
S'57600'
p206
ssS'build'
p207
(dp208
S'core'
p209
S'arduino'
p210
sS'mcu'
p211
S'atmega328p'
p212
sS'f_cpu'
p213
S'16000000L'
p214
sS'variant'
p215
S'eightanaloginputs'
p216
ssS'name'
p217
S'Arduino Nano w/ ATmega328'
p218
saa(lp219
S'nano'
p220
a(dp221
S'bootloader'
p222
(dp223
S'extended_fuses'
p224
S'0x00'
p225
sS'high_fuses'
p226
S'0xdd'
p227
sS'low_fuses'
p228
S'0xff'
p229
sS'lock_bits'
p230
S'0x0F'
p231
sS'file'
p232
S'ATmegaBOOT_168_diecimila.hex'
p233
sS'path'
p234
S'atmega'
p235
sS'unlock_bits'
p236
S'0x3F'
p237
ssS'upload'
p238
(dp239
S'protocol'
p240
S'arduino'
p241
sS'maximum_size'
p242
S'14336'
p243
sS'speed'
p244
S'19200'
p245
ssS'build'
p246
(dp247
S'core'
p248
S'arduino'
p249
sS'mcu'
p250
S'atmega168'
p251
sS'f_cpu'
p252
S'16000000L'
p253
sS'variant'
p254
S'eightanaloginputs'
p255
ssS'name'
p256
S'Arduino Nano w/ ATmega168'
p257
saa(lp258
S'mega2560'
p259
a(dp260
S'bootloader'
p261
(dp262
S'extended_fuses'
p263
S'0xFD'
p264
sS'high_fuses'
p265
S'0xD8'
p266
sS'low_fuses'
p267
S'0xFF'
p268
sS'lock_bits'
p269
S'0x0F'
p270
sS'file'
p271
S'stk500boot_v2_mega2560.hex'
p272
sS'path'
p273
S'stk500v2'
p274
sS'unlock_bits'
p275
S'0x3F'
p276
ssS'upload'
p277
(dp278
S'protocol'
p279
S'stk500v2'
p280
sS'maximum_size'
p281
S'258048'
p282
sS'speed'
p283
S'115200'
p284
ssS'build'
p285
(dp286
S'core'
p287
S'arduino'
p288
sS'mcu'
p289
S'atmega2560'
p290
sS'f_cpu'
p291
S'16000000L'
p292
sS'variant'
p293
S'mega'
p294
ssS'name'
p295
S'Arduino Mega 2560 or Mega ADK'
p296
saa(lp297
S'mega'
p298
a(dp299
S'bootloader'
p300
(dp301
S'extended_fuses'
p302
S'0xF5'
p303
sS'high_fuses'
p304
S'0xDA'
p305
sS'low_fuses'
p306
S'0xFF'
p307
sS'lock_bits'
p308
S'0x0F'
p309
sS'file'
p310
S'ATmegaBOOT_168_atmega1280.hex'
p311
sS'path'
p312
S'atmega'
p313
sS'unlock_bits'
p314
S'0x3F'
p315
ssS'upload'
p316
(dp317
S'protocol'
p318
S'arduino'
p319
sS'maximum_size'
p320
S'126976'
p321
sS'speed'
p322
S'57600'
p323
ssS'build'
p324
(dp325
S'core'
p326
S'arduino'
p327
sS'mcu'
p328
S'atmega1280'
p329
sS'f_cpu'
p330
S'16000000L'
p331
sS'variant'
p332
S'mega'
p333
ssS'name'
p334
S'Arduino Mega (ATmega1280)'
p335
saa(lp336
S'leonardo'
p337
a(dp338
S'bootloader'
p339
(dp340
S'extended_fuses'
p341
S'0xcb'
p342
sS'high_fuses'
p343
S'0xd8'
p344
sS'low_fuses'
p345
S'0xff'
p346
sS'lock_bits'
p347
S'0x2F'
p348
sS'file'
p349
S'Caterina-Leonardo.hex'
p350
sS'path'
p351
S'caterina'
p352
sS'unlock_bits'
p353
S'0x3F'
p354
ssS'upload'
p355
(dp356
S'protocol'
p357
S'avr109'
p358
sS'maximum_size'
p359
S'28672'
p360
sS'speed'
p361
S'57600'
p362
sS'disable_flushing'
p363
S'true'
p364
ssS'build'
p365
(dp366
S'core'
p367
S'arduino'
p368
sS'f_cpu'
p369
S'16000000L'
p370
sS'vid'
p371
S'0x2341'
p372
sS'pid'
p373
S'0x8036'
p374
sS'variant'
p375
S'leonardo'
p376
sS'mcu'
p377
S'atmega32u4'
p378
ssS'name'
p379
S'Arduino Leonardo'
p380
saa(lp381
S'mini328'
p382
a(dp383
S'bootloader'
p384
(dp385
S'extended_fuses'
p386
S'0x05'
p387
sS'high_fuses'
p388
S'0xd8'
p389
sS'low_fuses'
p390
S'0xff'
p391
sS'lock_bits'
p392
S'0x0F'
p393
sS'file'
p394
S'optiboot_atmega328-Mini.hex'
p395
sS'path'
p396
S'optiboot'
p397
sS'unlock_bits'
p398
S'0x3F'
p399
ssS'upload'
p400
(dp401
S'protocol'
p402
S'arduino'
p403
sS'maximum_size'
p404
S'28672'
p405
sS'speed'
p406
S'115200'
p407
ssS'build'
p408
(dp409
S'core'
p410
S'arduino'
p411
sS'mcu'
p412
S'atmega328p'
p413
sS'f_cpu'
p414
S'16000000L'
p415
sS'variant'
p416
S'eightanaloginputs'
p417
ssS'name'
p418
S'Arduino Mini w/ ATmega328'
p419
saa(lp420
S'mini'
p421
a(dp422
S'bootloader'
p423
(dp424
S'extended_fuses'
p425
S'0x00'
p426
sS'high_fuses'
p427
S'0xdd'
p428
sS'low_fuses'
p429
S'0xff'
p430
sS'lock_bits'
p431
S'0x0F'
p432
sS'file'
p433
S'ATmegaBOOT_168_ng.hex'
p434
sS'path'
p435
S'atmega'
p436
sS'unlock_bits'
p437
S'0x3F'
p438
ssS'upload'
p439
(dp440
S'protocol'
p441
S'arduino'
p442
sS'maximum_size'
p443
S'14336'
p444
sS'speed'
p445
S'19200'
p446
ssS'build'
p447
(dp448
S'core'
p449
S'arduino'
p450
sS'mcu'
p451
S'atmega168'
p452
sS'f_cpu'
p453
S'16000000L'
p454
sS'variant'
p455
S'eightanaloginputs'
p456
ssS'name'
p457
S'Arduino Mini w/ ATmega168'
p458
saa(lp459
S'ethernet'
p460
a(dp461
S'bootloader'
p462
(dp463
S'extended_fuses'
p464
S'0x05'
p465
sS'high_fuses'
p466
S'0xde'
p467
sS'low_fuses'
p468
S'0xff'
p469
sS'lock_bits'
p470
S'0x0F'
p471
sS'file'
p472
S'optiboot_atmega328.hex'
p473
sS'path'
p474
S'optiboot'
p475
sS'unlock_bits'
p476
S'0x3F'
p477
ssS'upload'
p478
(dp479
S'protocol'
p480
S'arduino'
p481
sS'maximum_size'
p482
S'32256'
p483
sS'speed'
p484
S'115200'
p485
ssS'build'
p486
(dp487
S'variant'
p488
S'standard'
p489
sS'mcu'
p490
S'atmega328p'
p491
sS'f_cpu'
p492
S'16000000L'
p493
sS'core'
p494
S'arduino'
p495
ssS'name'
p496
S'Arduino Ethernet'
p497
saa(lp498
S'fio'
p499
a(dp500
S'bootloader'
p501
(dp502
S'extended_fuses'
p503
S'0x05'
p504
sS'high_fuses'
p505
S'0xDA'
p506
sS'low_fuses'
p507
S'0xFF'
p508
sS'lock_bits'
p509
S'0x0F'
p510
sS'file'
p511
S'ATmegaBOOT_168_atmega328_pro_8MHz.hex'
p512
sS'path'
p513
S'arduino:atmega'
p514
sS'unlock_bits'
p515
S'0x3F'
p516
ssS'upload'
p517
(dp518
S'protocol'
p519
S'arduino'
p520
sS'maximum_size'
p521
S'30720'
p522
sS'speed'
p523
S'57600'
p524
ssS'build'
p525
(dp526
S'core'
p527
S'arduino'
p528
sS'mcu'
p529
S'atmega328p'
p530
sS'f_cpu'
p531
S'8000000L'
p532
sS'variant'
p533
S'eightanaloginputs'
p534
ssS'name'
p535
S'Arduino Fio'
p536
saa(lp537
S'bt328'
p538
a(dp539
S'bootloader'
p540
(dp541
S'extended_fuses'
p542
S'0x05'
p543
sS'high_fuses'
p544
S'0xd8'
p545
sS'low_fuses'
p546
S'0xff'
p547
sS'lock_bits'
p548
S'0x0F'
p549
sS'file'
p550
S'ATmegaBOOT_168_atmega328_bt.hex'
p551
sS'path'
p552
S'bt'
p553
sS'unlock_bits'
p554
S'0x3F'
p555
ssS'upload'
p556
(dp557
S'protocol'
p558
S'arduino'
p559
sS'maximum_size'
p560
S'28672'
p561
sS'speed'
p562
S'19200'
p563
sS'disable_flushing'
p564
S'true'
p565
ssS'build'
p566
(dp567
S'core'
p568
S'arduino'
p569
sS'mcu'
p570
S'atmega328p'
p571
sS'f_cpu'
p572
S'16000000L'
p573
sS'variant'
p574
S'eightanaloginputs'
p575
ssS'name'
p576
S'Arduino BT w/ ATmega328'
p577
saa(lp578
S'bt'
p579
a(dp580
S'bootloader'
p581
(dp582
S'extended_fuses'
p583
S'0x00'
p584
sS'high_fuses'
p585
S'0xdd'
p586
sS'low_fuses'
p587
S'0xff'
p588
sS'lock_bits'
p589
S'0x0F'
p590
sS'file'
p591
S'ATmegaBOOT_168.hex'
p592
sS'path'
p593
S'bt'
p594
sS'unlock_bits'
p595
S'0x3F'
p596
ssS'upload'
p597
(dp598
S'protocol'
p599
S'arduino'
p600
sS'maximum_size'
p601
S'14336'
p602
sS'speed'
p603
S'19200'
p604
sS'disable_flushing'
p605
S'true'
p606
ssS'build'
p607
(dp608
S'core'
p609
S'arduino'
p610
sS'mcu'
p611
S'atmega168'
p612
sS'f_cpu'
p613
S'16000000L'
p614
sS'variant'
p615
S'eightanaloginputs'
p616
ssS'name'
p617
S'Arduino BT w/ ATmega168'
p618
saa(lp619
S'lilypad328'
p620
a(dp621
S'bootloader'
p622
(dp623
S'extended_fuses'
p624
S'0x05'
p625
sS'high_fuses'
p626
S'0xDA'
p627
sS'low_fuses'
p628
S'0xFF'
p629
sS'lock_bits'
p630
S'0x0F'
p631
sS'file'
p632
S'ATmegaBOOT_168_atmega328_pro_8MHz.hex'
p633
sS'path'
p634
S'atmega'
p635
sS'unlock_bits'
p636
S'0x3F'
p637
ssS'upload'
p638
(dp639
S'protocol'
p640
S'arduino'
p641
sS'maximum_size'
p642
S'30720'
p643
sS'speed'
p644
S'57600'
p645
ssS'build'
p646
(dp647
S'core'
p648
S'arduino'
p649
sS'mcu'
p650
S'atmega328p'
p651
sS'f_cpu'
p652
S'8000000L'
p653
sS'variant'
p654
S'standard'
p655
ssS'name'
p656
S'LilyPad Arduino w/ ATmega328'
p657
saa(lp658
S'lilypad'
p659
a(dp660
S'bootloader'
p661
(dp662
S'extended_fuses'
p663
S'0x00'
p664
sS'high_fuses'
p665
S'0xdd'
p666
sS'low_fuses'
p667
S'0xe2'
p668
sS'lock_bits'
p669
S'0x0F'
p670
sS'file'
p671
S'LilyPadBOOT_168.hex'
p672
sS'path'
p673
S'lilypad'
p674
sS'unlock_bits'
p675
S'0x3F'
p676
ssS'upload'
p677
(dp678
S'protocol'
p679
S'arduino'
p680
sS'maximum_size'
p681
S'14336'
p682
sS'speed'
p683
S'19200'
p684
ssS'build'
p685
(dp686
S'core'
p687
S'arduino'
p688
sS'mcu'
p689
S'atmega168'
p690
sS'f_cpu'
p691
S'8000000L'
p692
sS'variant'
p693
S'standard'
p694
ssS'name'
p695
S'LilyPad Arduino w/ ATmega168'
p696
saa(lp697
S'pro5v328'
p698
a(dp699
S'bootloader'
p700
(dp701
S'extended_fuses'
p702
S'0x05'
p703
sS'high_fuses'
p704
S'0xDA'
p705
sS'low_fuses'
p706
S'0xFF'
p707
sS'lock_bits'
p708
S'0x0F'
p709
sS'file'
p710
S'ATmegaBOOT_168_atmega328.hex'
p711
sS'path'
p712
S'atmega'
p713
sS'unlock_bits'
p714
S'0x3F'
p715
ssS'upload'
p716
(dp717
S'protocol'
p718
S'arduino'
p719
sS'maximum_size'
p720
S'30720'
p721
sS'speed'
p722
S'57600'
p723
ssS'build'
p724
(dp725
S'core'
p726
S'arduino'
p727
sS'mcu'
p728
S'atmega328p'
p729
sS'f_cpu'
p730
S'16000000L'
p731
sS'variant'
p732
S'standard'
p733
ssS'name'
p734
S'Arduino Pro or Pro Mini (5V, 16 MHz) w/ ATmega328'
p735
saa(lp736
S'pro5v'
p737
a(dp738
S'bootloader'
p739
(dp740
S'extended_fuses'
p741
S'0x00'
p742
sS'high_fuses'
p743
S'0xdd'
p744
sS'low_fuses'
p745
S'0xff'
p746
sS'lock_bits'
p747
S'0x0F'
p748
sS'file'
p749
S'ATmegaBOOT_168_diecimila.hex'
p750
sS'path'
p751
S'atmega'
p752
sS'unlock_bits'
p753
S'0x3F'
p754
ssS'upload'
p755
(dp756
S'protocol'
p757
S'arduino'
p758
sS'maximum_size'
p759
S'14336'
p760
sS'speed'
p761
S'19200'
p762
ssS'build'
p763
(dp764
S'core'
p765
S'arduino'
p766
sS'mcu'
p767
S'atmega168'
p768
sS'f_cpu'
p769
S'16000000L'
p770
sS'variant'
p771
S'standard'
p772
ssS'name'
p773
S'Arduino Pro or Pro Mini (5V, 16 MHz) w/ ATmega168'
p774
saa(lp775
S'pro328'
p776
a(dp777
S'bootloader'
p778
(dp779
S'extended_fuses'
p780
S'0x05'
p781
sS'high_fuses'
p782
S'0xDA'
p783
sS'low_fuses'
p784
S'0xFF'
p785
sS'lock_bits'
p786
S'0x0F'
p787
sS'file'
p788
S'ATmegaBOOT_168_atmega328_pro_8MHz.hex'
p789
sS'path'
p790
S'atmega'
p791
sS'unlock_bits'
p792
S'0x3F'
p793
ssS'upload'
p794
(dp795
S'protocol'
p796
S'arduino'
p797
sS'maximum_size'
p798
S'30720'
p799
sS'speed'
p800
S'57600'
p801
ssS'build'
p802
(dp803
S'core'
p804
S'arduino'
p805
sS'mcu'
p806
S'atmega328p'
p807
sS'f_cpu'
p808
S'8000000L'
p809
sS'variant'
p810
S'standard'
p811
ssS'name'
p812
S'Arduino Pro or Pro Mini (3.3V, 8 MHz) w/ ATmega328'
p813
saa(lp814
S'pro'
p815
a(dp816
S'bootloader'
p817
(dp818
S'extended_fuses'
p819
S'0x00'
p820
sS'high_fuses'
p821
S'0xdd'
p822
sS'low_fuses'
p823
S'0xc6'
p824
sS'lock_bits'
p825
S'0x0F'
p826
sS'file'
p827
S'ATmegaBOOT_168_pro_8MHz.hex'
p828
sS'path'
p829
S'atmega'
p830
sS'unlock_bits'
p831
S'0x3F'
p832
ssS'upload'
p833
(dp834
S'protocol'
p835
S'arduino'
p836
sS'maximum_size'
p837
S'14336'
p838
sS'speed'
p839
S'19200'
p840
ssS'build'
p841
(dp842
S'core'
p843
S'arduino'
p844
sS'mcu'
p845
S'atmega168'
p846
sS'f_cpu'
p847
S'8000000L'
p848
sS'variant'
p849
S'standard'
p850
ssS'name'
p851
S'Arduino Pro or Pro Mini (3.3V, 8 MHz) w/ ATmega168'
p852
saa(lp853
S'atmega168'
p854
a(dp855
S'bootloader'
p856
(dp857
S'extended_fuses'
p858
S'0x00'
p859
sS'high_fuses'
p860
S'0xdd'
p861
sS'low_fuses'
p862
S'0xff'
p863
sS'lock_bits'
p864
S'0x0F'
p865
sS'file'
p866
S'ATmegaBOOT_168_ng.hex'
p867
sS'path'
p868
S'atmega'
p869
sS'unlock_bits'
p870
S'0x3F'
p871
ssS'upload'
p872
(dp873
S'protocol'
p874
S'arduino'
p875
sS'maximum_size'
p876
S'14336'
p877
sS'speed'
p878
S'19200'
p879
ssS'build'
p880
(dp881
S'core'
p882
S'arduino'
p883
sS'mcu'
p884
S'atmega168'
p885
sS'f_cpu'
p886
S'16000000L'
p887
sS'variant'
p888
S'standard'
p889
ssS'name'
p890
S'Arduino NG or older w/ ATmega168'
p891
saa(lp892
S'atmega8'
p893
a(dp894
S'bootloader'
p895
(dp896
S'high_fuses'
p897
S'0xca'
p898
sS'low_fuses'
p899
S'0xdf'
p900
sS'lock_bits'
p901
S'0x0F'
p902
sS'file'
p903
S'ATmegaBOOT.hex'
p904
sS'path'
p905
S'atmega8'
p906
sS'unlock_bits'
p907
S'0x3F'
p908
ssS'upload'
p909
(dp910
S'protocol'
p911
S'arduino'
p912
sS'maximum_size'
p913
S'7168'
p914
sS'speed'
p915
S'19200'
p916
ssS'build'
p917
(dp918
S'core'
p919
S'arduino'
p920
sS'mcu'
p921
S'atmega8'
p922
sS'f_cpu'
p923
S'16000000L'
p924
sS'variant'
p925
S'standard'
p926
ssS'name'
p927
S'Arduino NG or older w/ ATmega8'
p928
saatp929
Rp930
(dp931
S'default'
p932
S'uno'
p933
sbtp934
a(S'used_libs'
p935
(lp936
S'/usr/share/arduino/hardware/arduino/cores/arduino'
p937
atp938
a(S'make'
p939
S'/usr/bin/make'
p940
tp941
a(S'arduino_libraries_dir'
p942
S'/usr/share/arduino/libraries'
p943
tp944
a(S'cc'
p945
S'/usr/bin/avr-gcc'
p946
tp947
a(S'cflags'
p948
g2
(g3
g4
(lp949
tp950
Rp951
tp952
a(S'cxxflags'
p953
g2
(g3
g4
(lp954
S'-fno-exceptions'
p955
atp956
Rp957
tp958
a(S'arduino_variants_dir'
p959
S'/usr/share/arduino/hardware/arduino/variants'
p960
tp961
a(S'stty'
p962
S'/bin/stty'
p963
tp964
a(S'version.txt'
p965
S'/usr/share/arduino/lib/version.txt'
p966
tp967
a(S'arduino_core_dir'
p968
g937
tp969
a(S'boards.txt'
p970
S'/usr/share/arduino/hardware/arduino/boards.txt'
p971
tp972
a(S'avrdude.conf'
p973
S'/usr/share/arduino/hardware/tools/avrdude.conf'
p974
tp975
a(S'deps'
p976
g2
(g3
g4
(lp977
S'.build/uno/src/dependencies.d'
p978
aS'.build/uno/arduino/dependencies.d'
p979
atp980
Rp981
tp982
a.